
GameController.elf:     file format elf32-avr

Sections:
Idx Name          Size      VMA       LMA       File off  Algn
  0 .text         000014d0  00000000  00000000  00000094  2**1
                  CONTENTS, ALLOC, LOAD, READONLY, CODE
  1 .data         00000040  00800060  000014d0  00001564  2**0
                  CONTENTS, ALLOC, LOAD, DATA
  2 .bss          00000021  008000a0  008000a0  000015a4  2**0
                  ALLOC
  3 .comment      00000030  00000000  00000000  000015a4  2**0
                  CONTENTS, READONLY
  4 .note.gnu.avr.deviceinfo 0000003c  00000000  00000000  000015d4  2**2
                  CONTENTS, READONLY
  5 .debug_aranges 000001a0  00000000  00000000  00001610  2**0
                  CONTENTS, READONLY, DEBUGGING
  6 .debug_info   0000244f  00000000  00000000  000017b0  2**0
                  CONTENTS, READONLY, DEBUGGING
  7 .debug_abbrev 00000c6d  00000000  00000000  00003bff  2**0
                  CONTENTS, READONLY, DEBUGGING
  8 .debug_line   0000123d  00000000  00000000  0000486c  2**0
                  CONTENTS, READONLY, DEBUGGING
  9 .debug_frame  000004b4  00000000  00000000  00005aac  2**2
                  CONTENTS, READONLY, DEBUGGING
 10 .debug_str    00000974  00000000  00000000  00005f60  2**0
                  CONTENTS, READONLY, DEBUGGING
 11 .debug_loc    000018eb  00000000  00000000  000068d4  2**0
                  CONTENTS, READONLY, DEBUGGING
 12 .debug_ranges 00000158  00000000  00000000  000081bf  2**0
                  CONTENTS, READONLY, DEBUGGING

Disassembly of section .text:

00000000 <__vectors>:
       0:	0c 94 d2 00 	jmp	0x1a4	; 0x1a4 <__ctors_end>
       4:	0c 94 ef 00 	jmp	0x1de	; 0x1de <__bad_interrupt>
       8:	0c 94 ef 00 	jmp	0x1de	; 0x1de <__bad_interrupt>
       c:	0c 94 ef 00 	jmp	0x1de	; 0x1de <__bad_interrupt>
      10:	0c 94 ef 00 	jmp	0x1de	; 0x1de <__bad_interrupt>
      14:	0c 94 ef 00 	jmp	0x1de	; 0x1de <__bad_interrupt>
      18:	0c 94 ef 00 	jmp	0x1de	; 0x1de <__bad_interrupt>
      1c:	0c 94 ef 00 	jmp	0x1de	; 0x1de <__bad_interrupt>
      20:	0c 94 ef 00 	jmp	0x1de	; 0x1de <__bad_interrupt>
      24:	0c 94 ef 00 	jmp	0x1de	; 0x1de <__bad_interrupt>
      28:	0c 94 ef 00 	jmp	0x1de	; 0x1de <__bad_interrupt>
      2c:	0c 94 ef 00 	jmp	0x1de	; 0x1de <__bad_interrupt>
      30:	0c 94 ef 00 	jmp	0x1de	; 0x1de <__bad_interrupt>
      34:	0c 94 ef 00 	jmp	0x1de	; 0x1de <__bad_interrupt>
      38:	0c 94 ef 00 	jmp	0x1de	; 0x1de <__bad_interrupt>
      3c:	0c 94 ef 00 	jmp	0x1de	; 0x1de <__bad_interrupt>
      40:	0c 94 ef 00 	jmp	0x1de	; 0x1de <__bad_interrupt>
      44:	0c 94 ef 00 	jmp	0x1de	; 0x1de <__bad_interrupt>
      48:	0c 94 ef 00 	jmp	0x1de	; 0x1de <__bad_interrupt>
      4c:	0c 94 ef 00 	jmp	0x1de	; 0x1de <__bad_interrupt>
      50:	0c 94 ef 00 	jmp	0x1de	; 0x1de <__bad_interrupt>
      54:	37 06       	cpc	r3, r23
      56:	3e 06       	cpc	r3, r30
      58:	3e 06       	cpc	r3, r30
      5a:	3e 06       	cpc	r3, r30
      5c:	3e 06       	cpc	r3, r30
      5e:	3e 06       	cpc	r3, r30
      60:	3e 06       	cpc	r3, r30
      62:	3e 06       	cpc	r3, r30
      64:	3e 06       	cpc	r3, r30
      66:	3e 06       	cpc	r3, r30
      68:	3e 06       	cpc	r3, r30
      6a:	3e 06       	cpc	r3, r30
      6c:	3e 06       	cpc	r3, r30
      6e:	3e 06       	cpc	r3, r30
      70:	3e 06       	cpc	r3, r30
      72:	3e 06       	cpc	r3, r30
      74:	3e 06       	cpc	r3, r30
      76:	3e 06       	cpc	r3, r30
      78:	3e 06       	cpc	r3, r30
      7a:	3e 06       	cpc	r3, r30
      7c:	3e 06       	cpc	r3, r30
      7e:	3e 06       	cpc	r3, r30
      80:	3e 06       	cpc	r3, r30
      82:	3e 06       	cpc	r3, r30
      84:	3e 06       	cpc	r3, r30
      86:	3e 06       	cpc	r3, r30
      88:	3e 06       	cpc	r3, r30
      8a:	3e 06       	cpc	r3, r30
      8c:	3e 06       	cpc	r3, r30
      8e:	11 06       	cpc	r1, r17
      90:	89 05       	cpc	r24, r9
      92:	ac 05       	cpc	r26, r12
      94:	3e 06       	cpc	r3, r30
      96:	21 06       	cpc	r2, r17
      98:	3e 06       	cpc	r3, r30
      9a:	3e 06       	cpc	r3, r30
      9c:	3e 06       	cpc	r3, r30
      9e:	3e 06       	cpc	r3, r30
      a0:	3e 06       	cpc	r3, r30
      a2:	3e 06       	cpc	r3, r30
      a4:	3e 06       	cpc	r3, r30
      a6:	3e 06       	cpc	r3, r30
      a8:	3e 06       	cpc	r3, r30
      aa:	3e 06       	cpc	r3, r30
      ac:	3e 06       	cpc	r3, r30
      ae:	3e 06       	cpc	r3, r30
      b0:	2c 06       	cpc	r2, r28
      b2:	3e 06       	cpc	r3, r30
      b4:	d7 05       	cpc	r29, r7
      b6:	3e 06       	cpc	r3, r30
      b8:	3e 06       	cpc	r3, r30
      ba:	f3 05       	cpc	r31, r3
      bc:	3e 06       	cpc	r3, r30
      be:	3e 06       	cpc	r3, r30
      c0:	3e 06       	cpc	r3, r30
      c2:	3e 06       	cpc	r3, r30
      c4:	3e 06       	cpc	r3, r30
      c6:	3e 06       	cpc	r3, r30
      c8:	3e 06       	cpc	r3, r30
      ca:	3e 06       	cpc	r3, r30
      cc:	3e 06       	cpc	r3, r30
      ce:	01 06       	cpc	r0, r17
      d0:	89 05       	cpc	r24, r9
      d2:	94 05       	cpc	r25, r4
      d4:	3e 06       	cpc	r3, r30
      d6:	21 06       	cpc	r2, r17
      d8:	3e 06       	cpc	r3, r30
      da:	3e 06       	cpc	r3, r30
      dc:	3e 06       	cpc	r3, r30
      de:	3e 06       	cpc	r3, r30
      e0:	3e 06       	cpc	r3, r30
      e2:	3e 06       	cpc	r3, r30
      e4:	3e 06       	cpc	r3, r30
      e6:	3e 06       	cpc	r3, r30
      e8:	3e 06       	cpc	r3, r30
      ea:	3e 06       	cpc	r3, r30
      ec:	3e 06       	cpc	r3, r30
      ee:	3e 06       	cpc	r3, r30
      f0:	2c 06       	cpc	r2, r28
      f2:	3e 06       	cpc	r3, r30
      f4:	c9 05       	cpc	r28, r9
      f6:	3e 06       	cpc	r3, r30
      f8:	3e 06       	cpc	r3, r30
      fa:	e5 05       	cpc	r30, r5
      fc:	37 06       	cpc	r3, r23
      fe:	3e 06       	cpc	r3, r30
     100:	3e 06       	cpc	r3, r30
     102:	3e 06       	cpc	r3, r30
     104:	3e 06       	cpc	r3, r30
     106:	3e 06       	cpc	r3, r30
     108:	3e 06       	cpc	r3, r30
     10a:	3e 06       	cpc	r3, r30
     10c:	3e 06       	cpc	r3, r30
     10e:	3e 06       	cpc	r3, r30
     110:	3e 06       	cpc	r3, r30
     112:	3e 06       	cpc	r3, r30
     114:	3e 06       	cpc	r3, r30
     116:	3e 06       	cpc	r3, r30
     118:	3e 06       	cpc	r3, r30
     11a:	3e 06       	cpc	r3, r30
     11c:	3e 06       	cpc	r3, r30
     11e:	3e 06       	cpc	r3, r30
     120:	3e 06       	cpc	r3, r30
     122:	3e 06       	cpc	r3, r30
     124:	3e 06       	cpc	r3, r30
     126:	3e 06       	cpc	r3, r30
     128:	3e 06       	cpc	r3, r30
     12a:	3e 06       	cpc	r3, r30
     12c:	3e 06       	cpc	r3, r30
     12e:	3e 06       	cpc	r3, r30
     130:	3e 06       	cpc	r3, r30
     132:	3e 06       	cpc	r3, r30
     134:	3e 06       	cpc	r3, r30
     136:	48 06       	cpc	r4, r24
     138:	89 05       	cpc	r24, r9
     13a:	ab 05       	cpc	r26, r11
     13c:	3e 06       	cpc	r3, r30
     13e:	21 06       	cpc	r2, r17
     140:	3e 06       	cpc	r3, r30
     142:	3e 06       	cpc	r3, r30
     144:	3e 06       	cpc	r3, r30
     146:	3e 06       	cpc	r3, r30
     148:	3e 06       	cpc	r3, r30
     14a:	3e 06       	cpc	r3, r30
     14c:	3e 06       	cpc	r3, r30
     14e:	3e 06       	cpc	r3, r30
     150:	3e 06       	cpc	r3, r30
     152:	3e 06       	cpc	r3, r30
     154:	3e 06       	cpc	r3, r30
     156:	3e 06       	cpc	r3, r30
     158:	2c 06       	cpc	r2, r28
     15a:	3e 06       	cpc	r3, r30
     15c:	d6 05       	cpc	r29, r6
     15e:	3e 06       	cpc	r3, r30
     160:	3e 06       	cpc	r3, r30
     162:	f2 05       	cpc	r31, r2
     164:	3e 06       	cpc	r3, r30
     166:	3e 06       	cpc	r3, r30
     168:	3e 06       	cpc	r3, r30
     16a:	3e 06       	cpc	r3, r30
     16c:	3e 06       	cpc	r3, r30
     16e:	3e 06       	cpc	r3, r30
     170:	3e 06       	cpc	r3, r30
     172:	3e 06       	cpc	r3, r30
     174:	3e 06       	cpc	r3, r30
     176:	00 06       	cpc	r0, r16
     178:	89 05       	cpc	r24, r9
     17a:	93 05       	cpc	r25, r3
     17c:	3e 06       	cpc	r3, r30
     17e:	21 06       	cpc	r2, r17
     180:	3e 06       	cpc	r3, r30
     182:	3e 06       	cpc	r3, r30
     184:	3e 06       	cpc	r3, r30
     186:	3e 06       	cpc	r3, r30
     188:	3e 06       	cpc	r3, r30
     18a:	3e 06       	cpc	r3, r30
     18c:	3e 06       	cpc	r3, r30
     18e:	3e 06       	cpc	r3, r30
     190:	3e 06       	cpc	r3, r30
     192:	3e 06       	cpc	r3, r30
     194:	3e 06       	cpc	r3, r30
     196:	3e 06       	cpc	r3, r30
     198:	2c 06       	cpc	r2, r28
     19a:	3e 06       	cpc	r3, r30
     19c:	c8 05       	cpc	r28, r8
     19e:	3e 06       	cpc	r3, r30
     1a0:	3e 06       	cpc	r3, r30
     1a2:	e4 05       	cpc	r30, r4

000001a4 <__ctors_end>:
     1a4:	11 24       	eor	r1, r1
     1a6:	1f be       	out	0x3f, r1	; 63
     1a8:	cf e5       	ldi	r28, 0x5F	; 95
     1aa:	d8 e0       	ldi	r29, 0x08	; 8
     1ac:	de bf       	out	0x3e, r29	; 62
     1ae:	cd bf       	out	0x3d, r28	; 61

000001b0 <__do_copy_data>:
     1b0:	10 e0       	ldi	r17, 0x00	; 0
     1b2:	a0 e6       	ldi	r26, 0x60	; 96
     1b4:	b0 e0       	ldi	r27, 0x00	; 0
     1b6:	e0 ed       	ldi	r30, 0xD0	; 208
     1b8:	f4 e1       	ldi	r31, 0x14	; 20
     1ba:	02 c0       	rjmp	.+4      	; 0x1c0 <__do_copy_data+0x10>
     1bc:	05 90       	lpm	r0, Z+
     1be:	0d 92       	st	X+, r0
     1c0:	a0 3a       	cpi	r26, 0xA0	; 160
     1c2:	b1 07       	cpc	r27, r17
     1c4:	d9 f7       	brne	.-10     	; 0x1bc <__do_copy_data+0xc>

000001c6 <__do_clear_bss>:
     1c6:	20 e0       	ldi	r18, 0x00	; 0
     1c8:	a0 ea       	ldi	r26, 0xA0	; 160
     1ca:	b0 e0       	ldi	r27, 0x00	; 0
     1cc:	01 c0       	rjmp	.+2      	; 0x1d0 <.do_clear_bss_start>

000001ce <.do_clear_bss_loop>:
     1ce:	1d 92       	st	X+, r1

000001d0 <.do_clear_bss_start>:
     1d0:	a1 3c       	cpi	r26, 0xC1	; 193
     1d2:	b2 07       	cpc	r27, r18
     1d4:	e1 f7       	brne	.-8      	; 0x1ce <.do_clear_bss_loop>
     1d6:	0e 94 8c 06 	call	0xd18	; 0xd18 <main>
     1da:	0c 94 66 0a 	jmp	0x14cc	; 0x14cc <_exit>

000001de <__bad_interrupt>:
     1de:	0c 94 00 00 	jmp	0	; 0x0 <__vectors>

000001e2 <DELAY_us>:
         if 5000 is passed as the argument then it generates a delay of 5ms.		  

 ***************************************************************************************************/
void DELAY_us(uint16_t us_count) 
{
    while (us_count != 0) 
     1e2:	00 97       	sbiw	r24, 0x00	; 0
     1e4:	19 f0       	breq	.+6      	; 0x1ec <DELAY_us+0xa>
	#else
		//round up by default
		__ticks_dc = (uint32_t)(ceil(fabs(__tmp)));
	#endif

	__builtin_avr_delay_cycles(__ticks_dc);
     1e6:	00 00       	nop
    {
        _delay_us(1);
		us_count--;
     1e8:	01 97       	sbiw	r24, 0x01	; 1
         if 5000 is passed as the argument then it generates a delay of 5ms.		  

 ***************************************************************************************************/
void DELAY_us(uint16_t us_count) 
{
    while (us_count != 0) 
     1ea:	e9 f7       	brne	.-6      	; 0x1e6 <DELAY_us+0x4>
     1ec:	08 95       	ret

000001ee <DELAY_ms>:
     It generates a delay of 1ms for each count,
     if 1000 is passed as the argument then it generates delay of 1000ms(1sec)
 ***************************************************************************************************/
void DELAY_ms(uint16_t ms_count) 
{
    while (ms_count != 0) 
     1ee:	00 97       	sbiw	r24, 0x00	; 0
     1f0:	41 f0       	breq	.+16     	; 0x202 <DELAY_ms+0x14>
     1f2:	e9 ef       	ldi	r30, 0xF9	; 249
     1f4:	f0 e0       	ldi	r31, 0x00	; 0
     1f6:	31 97       	sbiw	r30, 0x01	; 1
     1f8:	f1 f7       	brne	.-4      	; 0x1f6 <DELAY_ms+0x8>
     1fa:	00 c0       	rjmp	.+0      	; 0x1fc <DELAY_ms+0xe>
     1fc:	00 00       	nop
    {
        _delay_us(1000); //DELAY_us is called to generate 1ms delay
        ms_count--;
     1fe:	01 97       	sbiw	r24, 0x01	; 1
     It generates a delay of 1ms for each count,
     if 1000 is passed as the argument then it generates delay of 1000ms(1sec)
 ***************************************************************************************************/
void DELAY_ms(uint16_t ms_count) 
{
    while (ms_count != 0) 
     200:	c1 f7       	brne	.-16     	; 0x1f2 <DELAY_ms+0x4>
     202:	08 95       	ret

00000204 <GPIO_PinDirection>:

    uint8_t v_portNumber_u8;


    v_portNumber_u8 =  (enm_pinNumber>>3);  // Divide the pin number by 8 go get the PORT number
    enm_pinNumber  =   enm_pinNumber & 0x07;  // lower 3-bits contains the bit number of a byte 
     204:	98 2f       	mov	r25, r24
     206:	97 70       	andi	r25, 0x07	; 7

    /* Go to particular port after decoding from the pin number and 
        set the direction as specified*/
    switch(v_portNumber_u8)
     208:	86 95       	lsr	r24
     20a:	86 95       	lsr	r24
     20c:	86 95       	lsr	r24
     20e:	81 30       	cpi	r24, 0x01	; 1
     210:	21 f1       	breq	.+72     	; 0x25a <GPIO_PinDirection+0x56>
     212:	30 f0       	brcs	.+12     	; 0x220 <GPIO_PinDirection+0x1c>
     214:	82 30       	cpi	r24, 0x02	; 2
     216:	f1 f1       	breq	.+124    	; 0x294 <GPIO_PinDirection+0x90>
     218:	83 30       	cpi	r24, 0x03	; 3
     21a:	09 f4       	brne	.+2      	; 0x21e <GPIO_PinDirection+0x1a>
     21c:	58 c0       	rjmp	.+176    	; 0x2ce <GPIO_PinDirection+0xca>
     21e:	08 95       	ret
    {
#ifdef DDRA        
    case 0:
        util_UpdateBit(DDRA,enm_pinNumber,v_pinDirn_u8);
     220:	66 23       	and	r22, r22
     222:	69 f0       	breq	.+26     	; 0x23e <GPIO_PinDirection+0x3a>
     224:	4a b3       	in	r20, 0x1a	; 26
     226:	21 e0       	ldi	r18, 0x01	; 1
     228:	30 e0       	ldi	r19, 0x00	; 0
     22a:	b9 01       	movw	r22, r18
     22c:	02 c0       	rjmp	.+4      	; 0x232 <GPIO_PinDirection+0x2e>
     22e:	66 0f       	add	r22, r22
     230:	77 1f       	adc	r23, r23
     232:	9a 95       	dec	r25
     234:	e2 f7       	brpl	.-8      	; 0x22e <GPIO_PinDirection+0x2a>
     236:	cb 01       	movw	r24, r22
     238:	84 2b       	or	r24, r20
     23a:	8a bb       	out	0x1a, r24	; 26
     23c:	08 95       	ret
     23e:	4a b3       	in	r20, 0x1a	; 26
     240:	21 e0       	ldi	r18, 0x01	; 1
     242:	30 e0       	ldi	r19, 0x00	; 0
     244:	b9 01       	movw	r22, r18
     246:	02 c0       	rjmp	.+4      	; 0x24c <GPIO_PinDirection+0x48>
     248:	66 0f       	add	r22, r22
     24a:	77 1f       	adc	r23, r23
     24c:	9a 95       	dec	r25
     24e:	e2 f7       	brpl	.-8      	; 0x248 <GPIO_PinDirection+0x44>
     250:	cb 01       	movw	r24, r22
     252:	80 95       	com	r24
     254:	84 23       	and	r24, r20
     256:	8a bb       	out	0x1a, r24	; 26
     258:	08 95       	ret
#endif        


#ifdef DDRB
    case 1:
        util_UpdateBit(DDRB,enm_pinNumber,v_pinDirn_u8);
     25a:	66 23       	and	r22, r22
     25c:	69 f0       	breq	.+26     	; 0x278 <GPIO_PinDirection+0x74>
     25e:	47 b3       	in	r20, 0x17	; 23
     260:	21 e0       	ldi	r18, 0x01	; 1
     262:	30 e0       	ldi	r19, 0x00	; 0
     264:	b9 01       	movw	r22, r18
     266:	02 c0       	rjmp	.+4      	; 0x26c <GPIO_PinDirection+0x68>
     268:	66 0f       	add	r22, r22
     26a:	77 1f       	adc	r23, r23
     26c:	9a 95       	dec	r25
     26e:	e2 f7       	brpl	.-8      	; 0x268 <GPIO_PinDirection+0x64>
     270:	cb 01       	movw	r24, r22
     272:	84 2b       	or	r24, r20
     274:	87 bb       	out	0x17, r24	; 23
     276:	08 95       	ret
     278:	47 b3       	in	r20, 0x17	; 23
     27a:	21 e0       	ldi	r18, 0x01	; 1
     27c:	30 e0       	ldi	r19, 0x00	; 0
     27e:	b9 01       	movw	r22, r18
     280:	02 c0       	rjmp	.+4      	; 0x286 <GPIO_PinDirection+0x82>
     282:	66 0f       	add	r22, r22
     284:	77 1f       	adc	r23, r23
     286:	9a 95       	dec	r25
     288:	e2 f7       	brpl	.-8      	; 0x282 <GPIO_PinDirection+0x7e>
     28a:	cb 01       	movw	r24, r22
     28c:	80 95       	com	r24
     28e:	84 23       	and	r24, r20
     290:	87 bb       	out	0x17, r24	; 23
     292:	08 95       	ret
#endif 

        
#ifdef DDRC
    case 2:
        util_UpdateBit(DDRC,enm_pinNumber,v_pinDirn_u8);
     294:	66 23       	and	r22, r22
     296:	69 f0       	breq	.+26     	; 0x2b2 <GPIO_PinDirection+0xae>
     298:	44 b3       	in	r20, 0x14	; 20
     29a:	21 e0       	ldi	r18, 0x01	; 1
     29c:	30 e0       	ldi	r19, 0x00	; 0
     29e:	b9 01       	movw	r22, r18
     2a0:	02 c0       	rjmp	.+4      	; 0x2a6 <GPIO_PinDirection+0xa2>
     2a2:	66 0f       	add	r22, r22
     2a4:	77 1f       	adc	r23, r23
     2a6:	9a 95       	dec	r25
     2a8:	e2 f7       	brpl	.-8      	; 0x2a2 <GPIO_PinDirection+0x9e>
     2aa:	cb 01       	movw	r24, r22
     2ac:	84 2b       	or	r24, r20
     2ae:	84 bb       	out	0x14, r24	; 20
     2b0:	08 95       	ret
     2b2:	44 b3       	in	r20, 0x14	; 20
     2b4:	21 e0       	ldi	r18, 0x01	; 1
     2b6:	30 e0       	ldi	r19, 0x00	; 0
     2b8:	b9 01       	movw	r22, r18
     2ba:	02 c0       	rjmp	.+4      	; 0x2c0 <GPIO_PinDirection+0xbc>
     2bc:	66 0f       	add	r22, r22
     2be:	77 1f       	adc	r23, r23
     2c0:	9a 95       	dec	r25
     2c2:	e2 f7       	brpl	.-8      	; 0x2bc <GPIO_PinDirection+0xb8>
     2c4:	cb 01       	movw	r24, r22
     2c6:	80 95       	com	r24
     2c8:	84 23       	and	r24, r20
     2ca:	84 bb       	out	0x14, r24	; 20
     2cc:	08 95       	ret
#endif 

        
#ifdef DDRD        
    case 3:
        util_UpdateBit(DDRD,enm_pinNumber,v_pinDirn_u8);
     2ce:	66 23       	and	r22, r22
     2d0:	69 f0       	breq	.+26     	; 0x2ec <GPIO_PinDirection+0xe8>
     2d2:	41 b3       	in	r20, 0x11	; 17
     2d4:	21 e0       	ldi	r18, 0x01	; 1
     2d6:	30 e0       	ldi	r19, 0x00	; 0
     2d8:	b9 01       	movw	r22, r18
     2da:	02 c0       	rjmp	.+4      	; 0x2e0 <GPIO_PinDirection+0xdc>
     2dc:	66 0f       	add	r22, r22
     2de:	77 1f       	adc	r23, r23
     2e0:	9a 95       	dec	r25
     2e2:	e2 f7       	brpl	.-8      	; 0x2dc <GPIO_PinDirection+0xd8>
     2e4:	cb 01       	movw	r24, r22
     2e6:	84 2b       	or	r24, r20
     2e8:	81 bb       	out	0x11, r24	; 17
     2ea:	08 95       	ret
     2ec:	41 b3       	in	r20, 0x11	; 17
     2ee:	21 e0       	ldi	r18, 0x01	; 1
     2f0:	30 e0       	ldi	r19, 0x00	; 0
     2f2:	b9 01       	movw	r22, r18
     2f4:	02 c0       	rjmp	.+4      	; 0x2fa <GPIO_PinDirection+0xf6>
     2f6:	66 0f       	add	r22, r22
     2f8:	77 1f       	adc	r23, r23
     2fa:	9a 95       	dec	r25
     2fc:	e2 f7       	brpl	.-8      	; 0x2f6 <GPIO_PinDirection+0xf2>
     2fe:	cb 01       	movw	r24, r22
     300:	80 95       	com	r24
     302:	84 23       	and	r24, r20
     304:	81 bb       	out	0x11, r24	; 17
     306:	08 95       	ret

00000308 <GPIO_PinWrite>:

    uint8_t v_portNumber_u8;


    v_portNumber_u8 =  (enm_pinNumber>>3);  // Divide the pin number by 8 go get the PORT number
    enm_pinNumber  =   enm_pinNumber & 0x07;  // lower 3-bits contains the bit number of a byte 
     308:	98 2f       	mov	r25, r24
     30a:	97 70       	andi	r25, 0x07	; 7

    /* Go to particular port after decoding from the pin number and 
        update the value of the specified pin*/
    switch(v_portNumber_u8)
     30c:	86 95       	lsr	r24
     30e:	86 95       	lsr	r24
     310:	86 95       	lsr	r24
     312:	81 30       	cpi	r24, 0x01	; 1
     314:	21 f1       	breq	.+72     	; 0x35e <GPIO_PinWrite+0x56>
     316:	30 f0       	brcs	.+12     	; 0x324 <GPIO_PinWrite+0x1c>
     318:	82 30       	cpi	r24, 0x02	; 2
     31a:	f1 f1       	breq	.+124    	; 0x398 <GPIO_PinWrite+0x90>
     31c:	83 30       	cpi	r24, 0x03	; 3
     31e:	09 f4       	brne	.+2      	; 0x322 <GPIO_PinWrite+0x1a>
     320:	58 c0       	rjmp	.+176    	; 0x3d2 <GPIO_PinWrite+0xca>
     322:	08 95       	ret
    {
#ifdef PORTA        
    case 0:
        util_UpdateBit(PORTA,enm_pinNumber,v_pinValue_u8);
     324:	66 23       	and	r22, r22
     326:	69 f0       	breq	.+26     	; 0x342 <GPIO_PinWrite+0x3a>
     328:	4b b3       	in	r20, 0x1b	; 27
     32a:	21 e0       	ldi	r18, 0x01	; 1
     32c:	30 e0       	ldi	r19, 0x00	; 0
     32e:	b9 01       	movw	r22, r18
     330:	02 c0       	rjmp	.+4      	; 0x336 <GPIO_PinWrite+0x2e>
     332:	66 0f       	add	r22, r22
     334:	77 1f       	adc	r23, r23
     336:	9a 95       	dec	r25
     338:	e2 f7       	brpl	.-8      	; 0x332 <GPIO_PinWrite+0x2a>
     33a:	cb 01       	movw	r24, r22
     33c:	84 2b       	or	r24, r20
     33e:	8b bb       	out	0x1b, r24	; 27
     340:	08 95       	ret
     342:	4b b3       	in	r20, 0x1b	; 27
     344:	21 e0       	ldi	r18, 0x01	; 1
     346:	30 e0       	ldi	r19, 0x00	; 0
     348:	b9 01       	movw	r22, r18
     34a:	02 c0       	rjmp	.+4      	; 0x350 <GPIO_PinWrite+0x48>
     34c:	66 0f       	add	r22, r22
     34e:	77 1f       	adc	r23, r23
     350:	9a 95       	dec	r25
     352:	e2 f7       	brpl	.-8      	; 0x34c <GPIO_PinWrite+0x44>
     354:	cb 01       	movw	r24, r22
     356:	80 95       	com	r24
     358:	84 23       	and	r24, r20
     35a:	8b bb       	out	0x1b, r24	; 27
     35c:	08 95       	ret
#endif        

        
#ifdef PORTB
    case 1:
        util_UpdateBit(PORTB,enm_pinNumber,v_pinValue_u8);
     35e:	66 23       	and	r22, r22
     360:	69 f0       	breq	.+26     	; 0x37c <GPIO_PinWrite+0x74>
     362:	48 b3       	in	r20, 0x18	; 24
     364:	21 e0       	ldi	r18, 0x01	; 1
     366:	30 e0       	ldi	r19, 0x00	; 0
     368:	b9 01       	movw	r22, r18
     36a:	02 c0       	rjmp	.+4      	; 0x370 <GPIO_PinWrite+0x68>
     36c:	66 0f       	add	r22, r22
     36e:	77 1f       	adc	r23, r23
     370:	9a 95       	dec	r25
     372:	e2 f7       	brpl	.-8      	; 0x36c <GPIO_PinWrite+0x64>
     374:	cb 01       	movw	r24, r22
     376:	84 2b       	or	r24, r20
     378:	88 bb       	out	0x18, r24	; 24
     37a:	08 95       	ret
     37c:	48 b3       	in	r20, 0x18	; 24
     37e:	21 e0       	ldi	r18, 0x01	; 1
     380:	30 e0       	ldi	r19, 0x00	; 0
     382:	b9 01       	movw	r22, r18
     384:	02 c0       	rjmp	.+4      	; 0x38a <GPIO_PinWrite+0x82>
     386:	66 0f       	add	r22, r22
     388:	77 1f       	adc	r23, r23
     38a:	9a 95       	dec	r25
     38c:	e2 f7       	brpl	.-8      	; 0x386 <GPIO_PinWrite+0x7e>
     38e:	cb 01       	movw	r24, r22
     390:	80 95       	com	r24
     392:	84 23       	and	r24, r20
     394:	88 bb       	out	0x18, r24	; 24
     396:	08 95       	ret
#endif        

        
#ifdef PORTC        
    case 2:
        util_UpdateBit(PORTC,enm_pinNumber,v_pinValue_u8);
     398:	66 23       	and	r22, r22
     39a:	69 f0       	breq	.+26     	; 0x3b6 <GPIO_PinWrite+0xae>
     39c:	45 b3       	in	r20, 0x15	; 21
     39e:	21 e0       	ldi	r18, 0x01	; 1
     3a0:	30 e0       	ldi	r19, 0x00	; 0
     3a2:	b9 01       	movw	r22, r18
     3a4:	02 c0       	rjmp	.+4      	; 0x3aa <GPIO_PinWrite+0xa2>
     3a6:	66 0f       	add	r22, r22
     3a8:	77 1f       	adc	r23, r23
     3aa:	9a 95       	dec	r25
     3ac:	e2 f7       	brpl	.-8      	; 0x3a6 <GPIO_PinWrite+0x9e>
     3ae:	cb 01       	movw	r24, r22
     3b0:	84 2b       	or	r24, r20
     3b2:	85 bb       	out	0x15, r24	; 21
     3b4:	08 95       	ret
     3b6:	45 b3       	in	r20, 0x15	; 21
     3b8:	21 e0       	ldi	r18, 0x01	; 1
     3ba:	30 e0       	ldi	r19, 0x00	; 0
     3bc:	b9 01       	movw	r22, r18
     3be:	02 c0       	rjmp	.+4      	; 0x3c4 <GPIO_PinWrite+0xbc>
     3c0:	66 0f       	add	r22, r22
     3c2:	77 1f       	adc	r23, r23
     3c4:	9a 95       	dec	r25
     3c6:	e2 f7       	brpl	.-8      	; 0x3c0 <GPIO_PinWrite+0xb8>
     3c8:	cb 01       	movw	r24, r22
     3ca:	80 95       	com	r24
     3cc:	84 23       	and	r24, r20
     3ce:	85 bb       	out	0x15, r24	; 21
     3d0:	08 95       	ret
#endif        

        
#ifdef PORTD        
    case 3:
        util_UpdateBit(PORTD,enm_pinNumber,v_pinValue_u8);
     3d2:	66 23       	and	r22, r22
     3d4:	69 f0       	breq	.+26     	; 0x3f0 <GPIO_PinWrite+0xe8>
     3d6:	42 b3       	in	r20, 0x12	; 18
     3d8:	21 e0       	ldi	r18, 0x01	; 1
     3da:	30 e0       	ldi	r19, 0x00	; 0
     3dc:	b9 01       	movw	r22, r18
     3de:	02 c0       	rjmp	.+4      	; 0x3e4 <GPIO_PinWrite+0xdc>
     3e0:	66 0f       	add	r22, r22
     3e2:	77 1f       	adc	r23, r23
     3e4:	9a 95       	dec	r25
     3e6:	e2 f7       	brpl	.-8      	; 0x3e0 <GPIO_PinWrite+0xd8>
     3e8:	cb 01       	movw	r24, r22
     3ea:	84 2b       	or	r24, r20
     3ec:	82 bb       	out	0x12, r24	; 18
     3ee:	08 95       	ret
     3f0:	42 b3       	in	r20, 0x12	; 18
     3f2:	21 e0       	ldi	r18, 0x01	; 1
     3f4:	30 e0       	ldi	r19, 0x00	; 0
     3f6:	b9 01       	movw	r22, r18
     3f8:	02 c0       	rjmp	.+4      	; 0x3fe <GPIO_PinWrite+0xf6>
     3fa:	66 0f       	add	r22, r22
     3fc:	77 1f       	adc	r23, r23
     3fe:	9a 95       	dec	r25
     400:	e2 f7       	brpl	.-8      	; 0x3fa <GPIO_PinWrite+0xf2>
     402:	cb 01       	movw	r24, r22
     404:	80 95       	com	r24
     406:	84 23       	and	r24, r20
     408:	82 bb       	out	0x12, r24	; 18
     40a:	08 95       	ret

0000040c <GPIO_PinRead>:
{
    uint8_t v_portNumber_u8;
    uint8_t returnStatus = 0;

    v_portNumber_u8 =  (enm_pinNumber>>3); // Divide the pin number by 8 go get the PORT number
    enm_pinNumber  =     enm_pinNumber & 0x07; // lower 3-bits contains the bit number of a byte 
     40c:	28 2f       	mov	r18, r24
     40e:	27 70       	andi	r18, 0x07	; 7

    /* Go to particular port after decoding from the pin number and read the pins status */
    switch(v_portNumber_u8)     
     410:	86 95       	lsr	r24
     412:	86 95       	lsr	r24
     414:	86 95       	lsr	r24
     416:	81 30       	cpi	r24, 0x01	; 1
     418:	79 f0       	breq	.+30     	; 0x438 <GPIO_PinRead+0x2c>
     41a:	28 f0       	brcs	.+10     	; 0x426 <GPIO_PinRead+0x1a>
     41c:	82 30       	cpi	r24, 0x02	; 2
     41e:	a9 f0       	breq	.+42     	; 0x44a <GPIO_PinRead+0x3e>
     420:	83 30       	cpi	r24, 0x03	; 3
     422:	e1 f0       	breq	.+56     	; 0x45c <GPIO_PinRead+0x50>
     424:	24 c0       	rjmp	.+72     	; 0x46e <GPIO_PinRead+0x62>
    { 
#ifdef PINA    
    case 0: 
        returnStatus = util_IsBitSet(PINA,enm_pinNumber);
     426:	89 b3       	in	r24, 0x19	; 25
     428:	90 e0       	ldi	r25, 0x00	; 0
     42a:	02 c0       	rjmp	.+4      	; 0x430 <GPIO_PinRead+0x24>
     42c:	95 95       	asr	r25
     42e:	87 95       	ror	r24
     430:	2a 95       	dec	r18
     432:	e2 f7       	brpl	.-8      	; 0x42c <GPIO_PinRead+0x20>
     434:	81 70       	andi	r24, 0x01	; 1
        break;
     436:	08 95       	ret
#endif        

#ifdef PINB
    case 1:
        returnStatus = util_IsBitSet(PINB,enm_pinNumber);
     438:	86 b3       	in	r24, 0x16	; 22
     43a:	90 e0       	ldi	r25, 0x00	; 0
     43c:	02 c0       	rjmp	.+4      	; 0x442 <GPIO_PinRead+0x36>
     43e:	95 95       	asr	r25
     440:	87 95       	ror	r24
     442:	2a 95       	dec	r18
     444:	e2 f7       	brpl	.-8      	; 0x43e <GPIO_PinRead+0x32>
     446:	81 70       	andi	r24, 0x01	; 1
        break;
     448:	08 95       	ret
#endif          

#ifdef PINC
    case 2:
        returnStatus = util_IsBitSet(PINC,enm_pinNumber);
     44a:	83 b3       	in	r24, 0x13	; 19
     44c:	90 e0       	ldi	r25, 0x00	; 0
     44e:	02 c0       	rjmp	.+4      	; 0x454 <GPIO_PinRead+0x48>
     450:	95 95       	asr	r25
     452:	87 95       	ror	r24
     454:	2a 95       	dec	r18
     456:	e2 f7       	brpl	.-8      	; 0x450 <GPIO_PinRead+0x44>
     458:	81 70       	andi	r24, 0x01	; 1
        break;
     45a:	08 95       	ret
#endif        
        
        
#ifdef PIND
    case 3:
        returnStatus = util_IsBitSet(PIND,enm_pinNumber);
     45c:	80 b3       	in	r24, 0x10	; 16
     45e:	90 e0       	ldi	r25, 0x00	; 0
     460:	02 c0       	rjmp	.+4      	; 0x466 <GPIO_PinRead+0x5a>
     462:	95 95       	asr	r25
     464:	87 95       	ror	r24
     466:	2a 95       	dec	r18
     468:	e2 f7       	brpl	.-8      	; 0x462 <GPIO_PinRead+0x56>
     46a:	81 70       	andi	r24, 0x01	; 1
        break;
     46c:	08 95       	ret
                Before reading the pins status, the pin should be configured as INPUT 
 ***************************************************************************************************/
uint8_t GPIO_PinRead(gpioPins_et enm_pinNumber)
{
    uint8_t v_portNumber_u8;
    uint8_t returnStatus = 0;
     46e:	80 e0       	ldi	r24, 0x00	; 0
        returnStatus = util_IsBitSet(PING,enm_pinNumber);
        break;
#endif             
    }                         
    return returnStatus;
}
     470:	08 95       	ret

00000472 <I2C_Init>:

 * description :This function is used to initialize the I2C module
------------------------------------------------------------------------------------*/
void I2C_Init()
{
    TWSR=0x00; //set presca1er bits to zero
     472:	11 b8       	out	0x01, r1	; 1
    TWBR=0x46; //SCL frequency is 50K for 16Mhz
     474:	86 e4       	ldi	r24, 0x46	; 70
     476:	80 b9       	out	0x00, r24	; 0
    TWCR=0x04; //enab1e TWI module
     478:	84 e0       	ldi	r24, 0x04	; 4
     47a:	86 bf       	out	0x36, r24	; 54
     47c:	08 95       	ret

0000047e <I2C_Start>:
                      ____|         |____________

 ***************************************************************************************************/
void I2C_Start()
{
    TWCR = ((1<<TWINT) | (1<<TWSTA) | (1<<TWEN));
     47e:	84 ea       	ldi	r24, 0xA4	; 164
     480:	86 bf       	out	0x36, r24	; 54
    while (!(TWCR & (1<<TWINT)));
     482:	06 b6       	in	r0, 0x36	; 54
     484:	07 fe       	sbrs	r0, 7
     486:	fd cf       	rjmp	.-6      	; 0x482 <I2C_Start+0x4>
}
     488:	08 95       	ret

0000048a <I2C_Stop>:

 ***************************************************************************************************/

void I2C_Stop(void)
{
    TWCR = ((1<< TWINT) | (1<<TWEN) | (1<<TWSTO));
     48a:	84 e9       	ldi	r24, 0x94	; 148
     48c:	86 bf       	out	0x36, r24	; 54
    DELAY_us(100) ; //wait for a short time
     48e:	84 e6       	ldi	r24, 0x64	; 100
     490:	90 e0       	ldi	r25, 0x00	; 0
     492:	0e 94 f1 00 	call	0x1e2	; 0x1e2 <DELAY_us>
     496:	08 95       	ret

00000498 <I2C_Write>:


 ***************************************************************************************************/
void I2C_Write(uint8_t v_i2cData_u8)
{
    TWDR = v_i2cData_u8 ;
     498:	83 b9       	out	0x03, r24	; 3
    TWCR = ((1<< TWINT) | (1<<TWEN));
     49a:	84 e8       	ldi	r24, 0x84	; 132
     49c:	86 bf       	out	0x36, r24	; 54
    while (!(TWCR & (1 <<TWINT)));
     49e:	06 b6       	in	r0, 0x36	; 54
     4a0:	07 fe       	sbrs	r0, 7
     4a2:	fd cf       	rjmp	.-6      	; 0x49e <I2C_Write+0x6>
}
     4a4:	08 95       	ret

000004a6 <I2C_Read>:


***************************************************************************************************/
uint8_t I2C_Read(uint8_t v_ackOption_u8)
{
    TWCR = ((1<< TWINT) | (1<<TWEN) | (v_ackOption_u8<<TWEA));
     4a6:	20 e4       	ldi	r18, 0x40	; 64
     4a8:	82 9f       	mul	r24, r18
     4aa:	c0 01       	movw	r24, r0
     4ac:	11 24       	eor	r1, r1
     4ae:	84 68       	ori	r24, 0x84	; 132
     4b0:	86 bf       	out	0x36, r24	; 54
    while ( !(TWCR & (1 <<TWINT)));
     4b2:	06 b6       	in	r0, 0x36	; 54
     4b4:	07 fe       	sbrs	r0, 7
     4b6:	fd cf       	rjmp	.-6      	; 0x4b2 <I2C_Read+0xc>
    return TWDR;
     4b8:	83 b1       	in	r24, 0x03	; 3
}
     4ba:	08 95       	ret

000004bc <lcd_SendHigherNibble>:
        }

        DELAY_ms(C_ScrollDelayTime_U8);
    }
    LCD_CmdWrite(CMD_DISPLAY_ON_CURSOR_ON);              // Finally enable the Cursor
}
     4bc:	0f 93       	push	r16
     4be:	1f 93       	push	r17
     4c0:	cf 93       	push	r28
     4c2:	c8 2f       	mov	r28, r24
     4c4:	84 fb       	bst	r24, 4
     4c6:	66 27       	eor	r22, r22
     4c8:	60 f9       	bld	r22, 0
     4ca:	06 ea       	ldi	r16, 0xA6	; 166
     4cc:	10 e0       	ldi	r17, 0x00	; 0
     4ce:	f8 01       	movw	r30, r16
     4d0:	82 85       	ldd	r24, Z+10	; 0x0a
     4d2:	0e 94 84 01 	call	0x308	; 0x308 <GPIO_PinWrite>
     4d6:	c5 fb       	bst	r28, 5
     4d8:	66 27       	eor	r22, r22
     4da:	60 f9       	bld	r22, 0
     4dc:	f8 01       	movw	r30, r16
     4de:	83 85       	ldd	r24, Z+11	; 0x0b
     4e0:	0e 94 84 01 	call	0x308	; 0x308 <GPIO_PinWrite>
     4e4:	c6 fb       	bst	r28, 6
     4e6:	66 27       	eor	r22, r22
     4e8:	60 f9       	bld	r22, 0
     4ea:	f8 01       	movw	r30, r16
     4ec:	84 85       	ldd	r24, Z+12	; 0x0c
     4ee:	0e 94 84 01 	call	0x308	; 0x308 <GPIO_PinWrite>
     4f2:	6c 2f       	mov	r22, r28
     4f4:	66 1f       	adc	r22, r22
     4f6:	66 27       	eor	r22, r22
     4f8:	66 1f       	adc	r22, r22
     4fa:	f8 01       	movw	r30, r16
     4fc:	85 85       	ldd	r24, Z+13	; 0x0d
     4fe:	0e 94 84 01 	call	0x308	; 0x308 <GPIO_PinWrite>
     502:	cf 91       	pop	r28
     504:	1f 91       	pop	r17
     506:	0f 91       	pop	r16
     508:	08 95       	ret

0000050a <lcd_SendCmdSignals>:
     50a:	cf 93       	push	r28
     50c:	df 93       	push	r29
     50e:	c6 ea       	ldi	r28, 0xA6	; 166
     510:	d0 e0       	ldi	r29, 0x00	; 0
     512:	60 e0       	ldi	r22, 0x00	; 0
     514:	8b 81       	ldd	r24, Y+3	; 0x03
     516:	0e 94 84 01 	call	0x308	; 0x308 <GPIO_PinWrite>
     51a:	60 e0       	ldi	r22, 0x00	; 0
     51c:	8c 81       	ldd	r24, Y+4	; 0x04
     51e:	0e 94 84 01 	call	0x308	; 0x308 <GPIO_PinWrite>
     522:	61 e0       	ldi	r22, 0x01	; 1
     524:	8d 81       	ldd	r24, Y+5	; 0x05
     526:	0e 94 84 01 	call	0x308	; 0x308 <GPIO_PinWrite>
     52a:	8a e0       	ldi	r24, 0x0A	; 10
     52c:	90 e0       	ldi	r25, 0x00	; 0
     52e:	0e 94 f1 00 	call	0x1e2	; 0x1e2 <DELAY_us>
     532:	60 e0       	ldi	r22, 0x00	; 0
     534:	8d 81       	ldd	r24, Y+5	; 0x05
     536:	0e 94 84 01 	call	0x308	; 0x308 <GPIO_PinWrite>
     53a:	df 91       	pop	r29
     53c:	cf 91       	pop	r28
     53e:	08 95       	ret

00000540 <lcd_SendLowerNibble>:
     540:	0f 93       	push	r16
     542:	1f 93       	push	r17
     544:	cf 93       	push	r28
     546:	c8 2f       	mov	r28, r24
     548:	68 2f       	mov	r22, r24
     54a:	61 70       	andi	r22, 0x01	; 1
     54c:	06 ea       	ldi	r16, 0xA6	; 166
     54e:	10 e0       	ldi	r17, 0x00	; 0
     550:	f8 01       	movw	r30, r16
     552:	86 81       	ldd	r24, Z+6	; 0x06
     554:	0e 94 84 01 	call	0x308	; 0x308 <GPIO_PinWrite>
     558:	c1 fb       	bst	r28, 1
     55a:	66 27       	eor	r22, r22
     55c:	60 f9       	bld	r22, 0
     55e:	f8 01       	movw	r30, r16
     560:	87 81       	ldd	r24, Z+7	; 0x07
     562:	0e 94 84 01 	call	0x308	; 0x308 <GPIO_PinWrite>
     566:	c2 fb       	bst	r28, 2
     568:	66 27       	eor	r22, r22
     56a:	60 f9       	bld	r22, 0
     56c:	f8 01       	movw	r30, r16
     56e:	80 85       	ldd	r24, Z+8	; 0x08
     570:	0e 94 84 01 	call	0x308	; 0x308 <GPIO_PinWrite>
     574:	c3 fb       	bst	r28, 3
     576:	66 27       	eor	r22, r22
     578:	60 f9       	bld	r22, 0
     57a:	f8 01       	movw	r30, r16
     57c:	81 85       	ldd	r24, Z+9	; 0x09
     57e:	0e 94 84 01 	call	0x308	; 0x308 <GPIO_PinWrite>
     582:	cf 91       	pop	r28
     584:	1f 91       	pop	r17
     586:	0f 91       	pop	r16
     588:	08 95       	ret

0000058a <lcd_SendDataSignals>:
     58a:	cf 93       	push	r28
     58c:	df 93       	push	r29
     58e:	c6 ea       	ldi	r28, 0xA6	; 166
     590:	d0 e0       	ldi	r29, 0x00	; 0
     592:	61 e0       	ldi	r22, 0x01	; 1
     594:	8b 81       	ldd	r24, Y+3	; 0x03
     596:	0e 94 84 01 	call	0x308	; 0x308 <GPIO_PinWrite>
     59a:	60 e0       	ldi	r22, 0x00	; 0
     59c:	8c 81       	ldd	r24, Y+4	; 0x04
     59e:	0e 94 84 01 	call	0x308	; 0x308 <GPIO_PinWrite>
     5a2:	61 e0       	ldi	r22, 0x01	; 1
     5a4:	8d 81       	ldd	r24, Y+5	; 0x05
     5a6:	0e 94 84 01 	call	0x308	; 0x308 <GPIO_PinWrite>
     5aa:	8a e0       	ldi	r24, 0x0A	; 10
     5ac:	90 e0       	ldi	r25, 0x00	; 0
     5ae:	0e 94 f1 00 	call	0x1e2	; 0x1e2 <DELAY_us>
     5b2:	60 e0       	ldi	r22, 0x00	; 0
     5b4:	8d 81       	ldd	r24, Y+5	; 0x05
     5b6:	0e 94 84 01 	call	0x308	; 0x308 <GPIO_PinWrite>
     5ba:	df 91       	pop	r29
     5bc:	cf 91       	pop	r28
     5be:	08 95       	ret

000005c0 <lcd_BusyCheck>:
     5c0:	1f 93       	push	r17
     5c2:	cf 93       	push	r28
     5c4:	df 93       	push	r29
     5c6:	80 91 aa 00 	lds	r24, 0x00AA	; 0x8000aa <LCDConfig+0x4>
     5ca:	8f 3f       	cpi	r24, 0xFF	; 255
     5cc:	e9 f1       	breq	.+122    	; 0x648 <lcd_BusyCheck+0x88>
     5ce:	c6 ea       	ldi	r28, 0xA6	; 166
     5d0:	d0 e0       	ldi	r29, 0x00	; 0
     5d2:	60 e0       	ldi	r22, 0x00	; 0
     5d4:	8d 85       	ldd	r24, Y+13	; 0x0d
     5d6:	0e 94 02 01 	call	0x204	; 0x204 <GPIO_PinDirection>
     5da:	60 e0       	ldi	r22, 0x00	; 0
     5dc:	8b 81       	ldd	r24, Y+3	; 0x03
     5de:	0e 94 84 01 	call	0x308	; 0x308 <GPIO_PinWrite>
     5e2:	61 e0       	ldi	r22, 0x01	; 1
     5e4:	8c 81       	ldd	r24, Y+4	; 0x04
     5e6:	0e 94 84 01 	call	0x308	; 0x308 <GPIO_PinWrite>
     5ea:	60 e0       	ldi	r22, 0x00	; 0
     5ec:	8d 81       	ldd	r24, Y+5	; 0x05
     5ee:	0e 94 84 01 	call	0x308	; 0x308 <GPIO_PinWrite>
     5f2:	8a e0       	ldi	r24, 0x0A	; 10
     5f4:	90 e0       	ldi	r25, 0x00	; 0
     5f6:	0e 94 f1 00 	call	0x1e2	; 0x1e2 <DELAY_us>
     5fa:	61 e0       	ldi	r22, 0x01	; 1
     5fc:	8d 81       	ldd	r24, Y+5	; 0x05
     5fe:	0e 94 84 01 	call	0x308	; 0x308 <GPIO_PinWrite>
     602:	8a e0       	ldi	r24, 0x0A	; 10
     604:	90 e0       	ldi	r25, 0x00	; 0
     606:	0e 94 f1 00 	call	0x1e2	; 0x1e2 <DELAY_us>
     60a:	8d 85       	ldd	r24, Y+13	; 0x0d
     60c:	0e 94 06 02 	call	0x40c	; 0x40c <GPIO_PinRead>
     610:	18 2f       	mov	r17, r24
     612:	8a 81       	ldd	r24, Y+2	; 0x02
     614:	84 30       	cpi	r24, 0x04	; 4
     616:	81 f4       	brne	.+32     	; 0x638 <lcd_BusyCheck+0x78>
     618:	60 e0       	ldi	r22, 0x00	; 0
     61a:	8d 81       	ldd	r24, Y+5	; 0x05
     61c:	0e 94 84 01 	call	0x308	; 0x308 <GPIO_PinWrite>
     620:	8a e0       	ldi	r24, 0x0A	; 10
     622:	90 e0       	ldi	r25, 0x00	; 0
     624:	0e 94 f1 00 	call	0x1e2	; 0x1e2 <DELAY_us>
     628:	61 e0       	ldi	r22, 0x01	; 1
     62a:	8d 81       	ldd	r24, Y+5	; 0x05
     62c:	0e 94 84 01 	call	0x308	; 0x308 <GPIO_PinWrite>
     630:	8a e0       	ldi	r24, 0x0A	; 10
     632:	90 e0       	ldi	r25, 0x00	; 0
     634:	0e 94 f1 00 	call	0x1e2	; 0x1e2 <DELAY_us>
     638:	11 11       	cpse	r17, r1
     63a:	d7 cf       	rjmp	.-82     	; 0x5ea <lcd_BusyCheck+0x2a>
     63c:	61 e0       	ldi	r22, 0x01	; 1
     63e:	80 91 b3 00 	lds	r24, 0x00B3	; 0x8000b3 <LCDConfig+0xd>
     642:	0e 94 02 01 	call	0x204	; 0x204 <GPIO_PinDirection>
     646:	04 c0       	rjmp	.+8      	; 0x650 <lcd_BusyCheck+0x90>
     648:	81 e0       	ldi	r24, 0x01	; 1
     64a:	90 e0       	ldi	r25, 0x00	; 0
     64c:	0e 94 f7 00 	call	0x1ee	; 0x1ee <DELAY_ms>
     650:	df 91       	pop	r29
     652:	cf 91       	pop	r28
     654:	1f 91       	pop	r17
     656:	08 95       	ret

00000658 <LCD_SetUp>:
     658:	8f 92       	push	r8
     65a:	9f 92       	push	r9
     65c:	af 92       	push	r10
     65e:	bf 92       	push	r11
     660:	cf 92       	push	r12
     662:	df 92       	push	r13
     664:	ef 92       	push	r14
     666:	ff 92       	push	r15
     668:	0f 93       	push	r16
     66a:	1f 93       	push	r17
     66c:	cf 93       	push	r28
     66e:	df 93       	push	r29
     670:	cd b7       	in	r28, 0x3d	; 61
     672:	de b7       	in	r29, 0x3e	; 62
     674:	98 2e       	mov	r9, r24
     676:	b6 2e       	mov	r11, r22
     678:	d4 2e       	mov	r13, r20
     67a:	ff 84       	ldd	r15, Y+15	; 0x0f
     67c:	18 89       	ldd	r17, Y+16	; 0x10
     67e:	e6 ea       	ldi	r30, 0xA6	; 166
     680:	f0 e0       	ldi	r31, 0x00	; 0
     682:	83 83       	std	Z+3, r24	; 0x03
     684:	64 83       	std	Z+4, r22	; 0x04
     686:	45 83       	std	Z+5, r20	; 0x05
     688:	26 83       	std	Z+6, r18	; 0x06
     68a:	07 83       	std	Z+7, r16	; 0x07
     68c:	e0 86       	std	Z+8, r14	; 0x08
     68e:	c1 86       	std	Z+9, r12	; 0x09
     690:	a2 86       	std	Z+10, r10	; 0x0a
     692:	83 86       	std	Z+11, r8	; 0x0b
     694:	f4 86       	std	Z+12, r15	; 0x0c
     696:	15 87       	std	Z+13, r17	; 0x0d
     698:	2f 3f       	cpi	r18, 0xFF	; 255
     69a:	39 f0       	breq	.+14     	; 0x6aa <LCD_SetUp+0x52>
     69c:	0f 3f       	cpi	r16, 0xFF	; 255
     69e:	29 f0       	breq	.+10     	; 0x6aa <LCD_SetUp+0x52>
     6a0:	8f ef       	ldi	r24, 0xFF	; 255
     6a2:	e8 16       	cp	r14, r24
     6a4:	11 f0       	breq	.+4      	; 0x6aa <LCD_SetUp+0x52>
     6a6:	c8 12       	cpse	r12, r24
     6a8:	04 c0       	rjmp	.+8      	; 0x6b2 <LCD_SetUp+0x5a>
     6aa:	84 e0       	ldi	r24, 0x04	; 4
     6ac:	80 93 a8 00 	sts	0x00A8, r24	; 0x8000a8 <LCDConfig+0x2>
     6b0:	13 c0       	rjmp	.+38     	; 0x6d8 <LCD_SetUp+0x80>
     6b2:	88 e0       	ldi	r24, 0x08	; 8
     6b4:	80 93 a8 00 	sts	0x00A8, r24	; 0x8000a8 <LCDConfig+0x2>
     6b8:	61 e0       	ldi	r22, 0x01	; 1
     6ba:	82 2f       	mov	r24, r18
     6bc:	0e 94 02 01 	call	0x204	; 0x204 <GPIO_PinDirection>
     6c0:	61 e0       	ldi	r22, 0x01	; 1
     6c2:	80 2f       	mov	r24, r16
     6c4:	0e 94 02 01 	call	0x204	; 0x204 <GPIO_PinDirection>
     6c8:	61 e0       	ldi	r22, 0x01	; 1
     6ca:	8e 2d       	mov	r24, r14
     6cc:	0e 94 02 01 	call	0x204	; 0x204 <GPIO_PinDirection>
     6d0:	61 e0       	ldi	r22, 0x01	; 1
     6d2:	8c 2d       	mov	r24, r12
     6d4:	0e 94 02 01 	call	0x204	; 0x204 <GPIO_PinDirection>
     6d8:	61 e0       	ldi	r22, 0x01	; 1
     6da:	89 2d       	mov	r24, r9
     6dc:	0e 94 02 01 	call	0x204	; 0x204 <GPIO_PinDirection>
     6e0:	61 e0       	ldi	r22, 0x01	; 1
     6e2:	8b 2d       	mov	r24, r11
     6e4:	0e 94 02 01 	call	0x204	; 0x204 <GPIO_PinDirection>
     6e8:	61 e0       	ldi	r22, 0x01	; 1
     6ea:	8d 2d       	mov	r24, r13
     6ec:	0e 94 02 01 	call	0x204	; 0x204 <GPIO_PinDirection>
     6f0:	61 e0       	ldi	r22, 0x01	; 1
     6f2:	8a 2d       	mov	r24, r10
     6f4:	0e 94 02 01 	call	0x204	; 0x204 <GPIO_PinDirection>
     6f8:	61 e0       	ldi	r22, 0x01	; 1
     6fa:	88 2d       	mov	r24, r8
     6fc:	0e 94 02 01 	call	0x204	; 0x204 <GPIO_PinDirection>
     700:	61 e0       	ldi	r22, 0x01	; 1
     702:	8f 2d       	mov	r24, r15
     704:	0e 94 02 01 	call	0x204	; 0x204 <GPIO_PinDirection>
     708:	61 e0       	ldi	r22, 0x01	; 1
     70a:	81 2f       	mov	r24, r17
     70c:	0e 94 02 01 	call	0x204	; 0x204 <GPIO_PinDirection>
     710:	df 91       	pop	r29
     712:	cf 91       	pop	r28
     714:	1f 91       	pop	r17
     716:	0f 91       	pop	r16
     718:	ff 90       	pop	r15
     71a:	ef 90       	pop	r14
     71c:	df 90       	pop	r13
     71e:	cf 90       	pop	r12
     720:	bf 90       	pop	r11
     722:	af 90       	pop	r10
     724:	9f 90       	pop	r9
     726:	8f 90       	pop	r8
     728:	08 95       	ret

0000072a <LCD_CmdWrite>:
     72a:	cf 93       	push	r28
     72c:	c8 2f       	mov	r28, r24
     72e:	0e 94 e0 02 	call	0x5c0	; 0x5c0 <lcd_BusyCheck>
     732:	80 91 a8 00 	lds	r24, 0x00A8	; 0x8000a8 <LCDConfig+0x2>
     736:	88 30       	cpi	r24, 0x08	; 8
     738:	21 f4       	brne	.+8      	; 0x742 <LCD_CmdWrite+0x18>
     73a:	8c 2f       	mov	r24, r28
     73c:	0e 94 a0 02 	call	0x540	; 0x540 <lcd_SendLowerNibble>
     740:	07 c0       	rjmp	.+14     	; 0x750 <LCD_CmdWrite+0x26>
     742:	8c 2f       	mov	r24, r28
     744:	0e 94 5e 02 	call	0x4bc	; 0x4bc <lcd_SendHigherNibble>
     748:	0e 94 85 02 	call	0x50a	; 0x50a <lcd_SendCmdSignals>
     74c:	c2 95       	swap	r28
     74e:	c0 7f       	andi	r28, 0xF0	; 240
     750:	8c 2f       	mov	r24, r28
     752:	0e 94 5e 02 	call	0x4bc	; 0x4bc <lcd_SendHigherNibble>
     756:	0e 94 85 02 	call	0x50a	; 0x50a <lcd_SendCmdSignals>
     75a:	cf 91       	pop	r28
     75c:	08 95       	ret

0000075e <LCD_GoToLine>:
     75e:	90 91 a6 00 	lds	r25, 0x00A6	; 0x8000a6 <LCDConfig>
     762:	89 17       	cp	r24, r25
     764:	58 f4       	brcc	.+22     	; 0x77c <LCD_GoToLine+0x1e>
     766:	10 92 b4 00 	sts	0x00B4, r1	; 0x8000b4 <v_LcdTrackCursorPos_U8>
     76a:	80 93 b5 00 	sts	0x00B5, r24	; 0x8000b5 <v_LcdTrackLineNum_U8>
     76e:	e8 2f       	mov	r30, r24
     770:	f0 e0       	ldi	r31, 0x00	; 0
     772:	e0 5a       	subi	r30, 0xA0	; 160
     774:	ff 4f       	sbci	r31, 0xFF	; 255
     776:	80 81       	ld	r24, Z
     778:	0e 94 95 03 	call	0x72a	; 0x72a <LCD_CmdWrite>
     77c:	08 95       	ret

0000077e <LCD_Clear>:
     77e:	81 e0       	ldi	r24, 0x01	; 1
     780:	0e 94 95 03 	call	0x72a	; 0x72a <LCD_CmdWrite>
     784:	80 e0       	ldi	r24, 0x00	; 0
     786:	0e 94 af 03 	call	0x75e	; 0x75e <LCD_GoToLine>
     78a:	08 95       	ret

0000078c <LCD_Init>:
     78c:	e6 ea       	ldi	r30, 0xA6	; 166
     78e:	f0 e0       	ldi	r31, 0x00	; 0
     790:	61 83       	std	Z+1, r22	; 0x01
     792:	80 83       	st	Z, r24
     794:	83 30       	cpi	r24, 0x03	; 3
     796:	40 f0       	brcs	.+16     	; 0x7a8 <LCD_Init+0x1c>
     798:	6f 70       	andi	r22, 0x0F	; 15
     79a:	e0 e6       	ldi	r30, 0x60	; 96
     79c:	f0 e0       	ldi	r31, 0x00	; 0
     79e:	80 e9       	ldi	r24, 0x90	; 144
     7a0:	86 0f       	add	r24, r22
     7a2:	82 83       	std	Z+2, r24	; 0x02
     7a4:	60 53       	subi	r22, 0x30	; 48
     7a6:	63 83       	std	Z+3, r22	; 0x03
     7a8:	84 e6       	ldi	r24, 0x64	; 100
     7aa:	90 e0       	ldi	r25, 0x00	; 0
     7ac:	0e 94 f7 00 	call	0x1ee	; 0x1ee <DELAY_ms>
     7b0:	80 91 a8 00 	lds	r24, 0x00A8	; 0x8000a8 <LCDConfig+0x2>
     7b4:	88 30       	cpi	r24, 0x08	; 8
     7b6:	21 f4       	brne	.+8      	; 0x7c0 <LCD_Init+0x34>
     7b8:	88 e3       	ldi	r24, 0x38	; 56
     7ba:	0e 94 95 03 	call	0x72a	; 0x72a <LCD_CmdWrite>
     7be:	29 c0       	rjmp	.+82     	; 0x812 <LCD_Init+0x86>
     7c0:	84 30       	cpi	r24, 0x04	; 4
     7c2:	39 f5       	brne	.+78     	; 0x812 <LCD_Init+0x86>
     7c4:	80 e3       	ldi	r24, 0x30	; 48
     7c6:	0e 94 5e 02 	call	0x4bc	; 0x4bc <lcd_SendHigherNibble>
     7ca:	0e 94 85 02 	call	0x50a	; 0x50a <lcd_SendCmdSignals>
     7ce:	84 e6       	ldi	r24, 0x64	; 100
     7d0:	90 e0       	ldi	r25, 0x00	; 0
     7d2:	0e 94 f7 00 	call	0x1ee	; 0x1ee <DELAY_ms>
     7d6:	80 e3       	ldi	r24, 0x30	; 48
     7d8:	0e 94 5e 02 	call	0x4bc	; 0x4bc <lcd_SendHigherNibble>
     7dc:	0e 94 85 02 	call	0x50a	; 0x50a <lcd_SendCmdSignals>
     7e0:	88 ec       	ldi	r24, 0xC8	; 200
     7e2:	90 e0       	ldi	r25, 0x00	; 0
     7e4:	0e 94 f1 00 	call	0x1e2	; 0x1e2 <DELAY_us>
     7e8:	80 e3       	ldi	r24, 0x30	; 48
     7ea:	0e 94 5e 02 	call	0x4bc	; 0x4bc <lcd_SendHigherNibble>
     7ee:	0e 94 85 02 	call	0x50a	; 0x50a <lcd_SendCmdSignals>
     7f2:	88 ec       	ldi	r24, 0xC8	; 200
     7f4:	90 e0       	ldi	r25, 0x00	; 0
     7f6:	0e 94 f1 00 	call	0x1e2	; 0x1e2 <DELAY_us>
     7fa:	80 e2       	ldi	r24, 0x20	; 32
     7fc:	0e 94 5e 02 	call	0x4bc	; 0x4bc <lcd_SendHigherNibble>
     800:	0e 94 85 02 	call	0x50a	; 0x50a <lcd_SendCmdSignals>
     804:	88 ec       	ldi	r24, 0xC8	; 200
     806:	90 e0       	ldi	r25, 0x00	; 0
     808:	0e 94 f1 00 	call	0x1e2	; 0x1e2 <DELAY_us>
     80c:	88 e2       	ldi	r24, 0x28	; 40
     80e:	0e 94 95 03 	call	0x72a	; 0x72a <LCD_CmdWrite>
     812:	8e e0       	ldi	r24, 0x0E	; 14
     814:	0e 94 95 03 	call	0x72a	; 0x72a <LCD_CmdWrite>
     818:	0e 94 bf 03 	call	0x77e	; 0x77e <LCD_Clear>
     81c:	08 95       	ret

0000081e <LCD_GoToNextLine>:
     81e:	80 91 b5 00 	lds	r24, 0x00B5	; 0x8000b5 <v_LcdTrackLineNum_U8>
     822:	8f 5f       	subi	r24, 0xFF	; 255
     824:	80 93 b5 00 	sts	0x00B5, r24	; 0x8000b5 <v_LcdTrackLineNum_U8>
     828:	10 92 b4 00 	sts	0x00B4, r1	; 0x8000b4 <v_LcdTrackCursorPos_U8>
     82c:	90 91 a6 00 	lds	r25, 0x00A6	; 0x8000a6 <LCDConfig>
     830:	89 17       	cp	r24, r25
     832:	10 f0       	brcs	.+4      	; 0x838 <LCD_GoToNextLine+0x1a>
     834:	10 92 b5 00 	sts	0x00B5, r1	; 0x8000b5 <v_LcdTrackLineNum_U8>
     838:	e0 91 b5 00 	lds	r30, 0x00B5	; 0x8000b5 <v_LcdTrackLineNum_U8>
     83c:	f0 e0       	ldi	r31, 0x00	; 0
     83e:	e0 5a       	subi	r30, 0xA0	; 160
     840:	ff 4f       	sbci	r31, 0xFF	; 255
     842:	80 81       	ld	r24, Z
     844:	0e 94 95 03 	call	0x72a	; 0x72a <LCD_CmdWrite>
     848:	08 95       	ret

0000084a <LCD_DisplayChar>:
     84a:	cf 93       	push	r28
     84c:	c8 2f       	mov	r28, r24
     84e:	90 91 a7 00 	lds	r25, 0x00A7	; 0x8000a7 <LCDConfig+0x1>
     852:	80 91 b4 00 	lds	r24, 0x00B4	; 0x8000b4 <v_LcdTrackCursorPos_U8>
     856:	89 17       	cp	r24, r25
     858:	18 f4       	brcc	.+6      	; 0x860 <__stack+0x1>
     85a:	ca 30       	cpi	r28, 0x0A	; 10
     85c:	29 f4       	brne	.+10     	; 0x868 <__stack+0x9>
     85e:	20 c0       	rjmp	.+64     	; 0x8a0 <__stack+0x41>
     860:	0e 94 0f 04 	call	0x81e	; 0x81e <LCD_GoToNextLine>
     864:	ca 30       	cpi	r28, 0x0A	; 10
     866:	f1 f0       	breq	.+60     	; 0x8a4 <__stack+0x45>
     868:	0e 94 e0 02 	call	0x5c0	; 0x5c0 <lcd_BusyCheck>
     86c:	80 91 a8 00 	lds	r24, 0x00A8	; 0x8000a8 <LCDConfig+0x2>
     870:	88 30       	cpi	r24, 0x08	; 8
     872:	21 f4       	brne	.+8      	; 0x87c <__stack+0x1d>
     874:	8c 2f       	mov	r24, r28
     876:	0e 94 a0 02 	call	0x540	; 0x540 <lcd_SendLowerNibble>
     87a:	07 c0       	rjmp	.+14     	; 0x88a <__stack+0x2b>
     87c:	8c 2f       	mov	r24, r28
     87e:	0e 94 5e 02 	call	0x4bc	; 0x4bc <lcd_SendHigherNibble>
     882:	0e 94 c5 02 	call	0x58a	; 0x58a <lcd_SendDataSignals>
     886:	c2 95       	swap	r28
     888:	c0 7f       	andi	r28, 0xF0	; 240
     88a:	8c 2f       	mov	r24, r28
     88c:	0e 94 5e 02 	call	0x4bc	; 0x4bc <lcd_SendHigherNibble>
     890:	0e 94 c5 02 	call	0x58a	; 0x58a <lcd_SendDataSignals>
     894:	80 91 b4 00 	lds	r24, 0x00B4	; 0x8000b4 <v_LcdTrackCursorPos_U8>
     898:	8f 5f       	subi	r24, 0xFF	; 255
     89a:	80 93 b4 00 	sts	0x00B4, r24	; 0x8000b4 <v_LcdTrackCursorPos_U8>
     89e:	02 c0       	rjmp	.+4      	; 0x8a4 <__stack+0x45>
     8a0:	0e 94 0f 04 	call	0x81e	; 0x81e <LCD_GoToNextLine>
     8a4:	cf 91       	pop	r28
     8a6:	08 95       	ret

000008a8 <LCD_DisplayString>:
     8a8:	cf 93       	push	r28
     8aa:	df 93       	push	r29
     8ac:	ec 01       	movw	r28, r24
     8ae:	88 81       	ld	r24, Y
     8b0:	88 23       	and	r24, r24
     8b2:	31 f0       	breq	.+12     	; 0x8c0 <LCD_DisplayString+0x18>
     8b4:	21 96       	adiw	r28, 0x01	; 1
     8b6:	0e 94 25 04 	call	0x84a	; 0x84a <LCD_DisplayChar>
     8ba:	89 91       	ld	r24, Y+
     8bc:	81 11       	cpse	r24, r1
     8be:	fb cf       	rjmp	.-10     	; 0x8b6 <LCD_DisplayString+0xe>
     8c0:	df 91       	pop	r29
     8c2:	cf 91       	pop	r28
     8c4:	08 95       	ret

000008c6 <LCD_DisplayNumber>:
                8.(C_HEX_U8,0x12AB,6) then 6-digits ie. 0012AB will be displayed
                9.(C_HEX_U8,0x12AB,C_DisplayDefaultDigits_U8) then 12AB will be displayed.                
****************************************************************************************************/
#if ((Enable_LCD_DisplayNumber == 1) || (Enable_LCD_DisplayFloatNumber == 1) || (Enable_LCD_Printf==1))
void LCD_DisplayNumber(uint8_t v_numericSystem_u8, uint32_t v_number_u32, uint8_t v_numOfDigitsToDisplay_u8)
{
     8c6:	4f 92       	push	r4
     8c8:	5f 92       	push	r5
     8ca:	6f 92       	push	r6
     8cc:	7f 92       	push	r7
     8ce:	8f 92       	push	r8
     8d0:	9f 92       	push	r9
     8d2:	af 92       	push	r10
     8d4:	bf 92       	push	r11
     8d6:	cf 92       	push	r12
     8d8:	df 92       	push	r13
     8da:	ef 92       	push	r14
     8dc:	ff 92       	push	r15
     8de:	0f 93       	push	r16
     8e0:	1f 93       	push	r17
     8e2:	cf 93       	push	r28
     8e4:	df 93       	push	r29
     8e6:	cd b7       	in	r28, 0x3d	; 61
     8e8:	de b7       	in	r29, 0x3e	; 62
     8ea:	2a 97       	sbiw	r28, 0x0a	; 10
     8ec:	0f b6       	in	r0, 0x3f	; 63
     8ee:	f8 94       	cli
     8f0:	de bf       	out	0x3e, r29	; 62
     8f2:	0f be       	out	0x3f, r0	; 63
     8f4:	cd bf       	out	0x3d, r28	; 61
     8f6:	88 2e       	mov	r8, r24
     8f8:	6a 01       	movw	r12, r20
     8fa:	7b 01       	movw	r14, r22
     8fc:	12 2f       	mov	r17, r18
    uint8_t i=0,a[10];
    
    if(C_BINARY_U8 == v_numericSystem_u8)
     8fe:	82 e0       	ldi	r24, 0x02	; 2
     900:	88 12       	cpse	r8, r24
     902:	24 c0       	rjmp	.+72     	; 0x94c <LCD_DisplayNumber+0x86>
    {
        while(v_numOfDigitsToDisplay_u8!=0)
     904:	22 23       	and	r18, r18
     906:	09 f4       	brne	.+2      	; 0x90a <LCD_DisplayNumber+0x44>
     908:	66 c0       	rjmp	.+204    	; 0x9d6 <LCD_DisplayNumber+0x110>
        {
          /* Start Extracting the bits from the specified bit positions.
          Get the Acsii values of the bits and display */
          i = util_GetBitStatus(v_number_u32,(v_numOfDigitsToDisplay_u8-1));
          LCD_DisplayChar(util_Dec2Ascii(i));
     90a:	aa 24       	eor	r10, r10
     90c:	a3 94       	inc	r10
     90e:	b1 2c       	mov	r11, r1
     910:	01 e0       	ldi	r16, 0x01	; 1
     912:	91 2c       	mov	r9, r1
     914:	8f ef       	ldi	r24, 0xFF	; 255
     916:	81 0f       	add	r24, r17
     918:	a5 01       	movw	r20, r10
     91a:	02 c0       	rjmp	.+4      	; 0x920 <LCD_DisplayNumber+0x5a>
     91c:	44 0f       	add	r20, r20
     91e:	55 1f       	adc	r21, r21
     920:	8a 95       	dec	r24
     922:	e2 f7       	brpl	.-8      	; 0x91c <LCD_DisplayNumber+0x56>
     924:	05 2e       	mov	r0, r21
     926:	00 0c       	add	r0, r0
     928:	66 0b       	sbc	r22, r22
     92a:	77 0b       	sbc	r23, r23
     92c:	4c 21       	and	r20, r12
     92e:	5d 21       	and	r21, r13
     930:	6e 21       	and	r22, r14
     932:	7f 21       	and	r23, r15
     934:	80 2f       	mov	r24, r16
     936:	45 2b       	or	r20, r21
     938:	46 2b       	or	r20, r22
     93a:	47 2b       	or	r20, r23
     93c:	09 f4       	brne	.+2      	; 0x940 <LCD_DisplayNumber+0x7a>
     93e:	89 2d       	mov	r24, r9
     940:	80 5d       	subi	r24, 0xD0	; 208
     942:	0e 94 25 04 	call	0x84a	; 0x84a <LCD_DisplayChar>
          v_numOfDigitsToDisplay_u8--;
     946:	11 50       	subi	r17, 0x01	; 1
{
    uint8_t i=0,a[10];
    
    if(C_BINARY_U8 == v_numericSystem_u8)
    {
        while(v_numOfDigitsToDisplay_u8!=0)
     948:	29 f7       	brne	.-54     	; 0x914 <LCD_DisplayNumber+0x4e>
     94a:	45 c0       	rjmp	.+138    	; 0x9d6 <LCD_DisplayNumber+0x110>
          i = util_GetBitStatus(v_number_u32,(v_numOfDigitsToDisplay_u8-1));
          LCD_DisplayChar(util_Dec2Ascii(i));
          v_numOfDigitsToDisplay_u8--;
        }        
    }    
    else if(v_number_u32==0)
     94c:	45 2b       	or	r20, r21
     94e:	46 2b       	or	r20, r22
     950:	47 2b       	or	r20, r23
     952:	19 f0       	breq	.+6      	; 0x95a <LCD_DisplayNumber+0x94>
        //for(i=0;((i<v_numOfDigitsToDisplay_u8) && (i<C_MaxDigitsToDisplay_U8));i++)
            LCD_DisplayChar('0');
    }
    else
    {
        for(i=0;i<v_numOfDigitsToDisplay_u8;i++)
     954:	21 11       	cpse	r18, r1
     956:	05 c0       	rjmp	.+10     	; 0x962 <LCD_DisplayNumber+0x9c>
     958:	3e c0       	rjmp	.+124    	; 0x9d6 <LCD_DisplayNumber+0x110>
    else if(v_number_u32==0)
    {
        /* If the number is zero then display Specified number of zeros*/
        /*TODO: Display single zero or multiple. Currently single zero is displayed*/
        //for(i=0;((i<v_numOfDigitsToDisplay_u8) && (i<C_MaxDigitsToDisplay_U8));i++)
            LCD_DisplayChar('0');
     95a:	80 e3       	ldi	r24, 0x30	; 48
     95c:	0e 94 25 04 	call	0x84a	; 0x84a <LCD_DisplayChar>
     960:	3a c0       	rjmp	.+116    	; 0x9d6 <LCD_DisplayNumber+0x110>
     962:	fe 01       	movw	r30, r28
     964:	31 96       	adiw	r30, 0x01	; 1
     966:	5f 01       	movw	r10, r30
    }
    else
    {
        for(i=0;i<v_numOfDigitsToDisplay_u8;i++)
     968:	00 e0       	ldi	r16, 0x00	; 0
                First get the remainder and divide the number by TypeOfNum(10-Dec, 16-Hex) each time.
                
                example for Decimal number: 
                If v_number_u32 = 123 then extracted remainder will be 3 and number will be 12.
                The process continues till it becomes zero or max digits reached*/
                a[i]=util_GetMod32(v_number_u32,v_numericSystem_u8);
     96a:	48 2c       	mov	r4, r8
     96c:	51 2c       	mov	r5, r1
     96e:	61 2c       	mov	r6, r1
     970:	71 2c       	mov	r7, r1
    {
        for(i=0;i<v_numOfDigitsToDisplay_u8;i++)
        {
            /* Continue extracting the digits from right side
               till the Specified v_numOfDigitsToDisplay_u8 */
            if(v_number_u32!=0)
     972:	c1 14       	cp	r12, r1
     974:	d1 04       	cpc	r13, r1
     976:	e1 04       	cpc	r14, r1
     978:	f1 04       	cpc	r15, r1
     97a:	89 f0       	breq	.+34     	; 0x99e <LCD_DisplayNumber+0xd8>
                First get the remainder and divide the number by TypeOfNum(10-Dec, 16-Hex) each time.
                
                example for Decimal number: 
                If v_number_u32 = 123 then extracted remainder will be 3 and number will be 12.
                The process continues till it becomes zero or max digits reached*/
                a[i]=util_GetMod32(v_number_u32,v_numericSystem_u8);
     97c:	9c 2c       	mov	r9, r12
     97e:	c7 01       	movw	r24, r14
     980:	b6 01       	movw	r22, r12
     982:	a3 01       	movw	r20, r6
     984:	92 01       	movw	r18, r4
     986:	0e 94 2a 0a 	call	0x1454	; 0x1454 <__udivmodsi4>
     98a:	c2 2e       	mov	r12, r18
     98c:	d3 2e       	mov	r13, r19
     98e:	e4 2e       	mov	r14, r20
     990:	f5 2e       	mov	r15, r21
     992:	82 9e       	mul	r8, r18
     994:	90 18       	sub	r9, r0
     996:	11 24       	eor	r1, r1
     998:	f5 01       	movw	r30, r10
     99a:	90 82       	st	Z, r9
     99c:	07 c0       	rjmp	.+14     	; 0x9ac <LCD_DisplayNumber+0xe6>
                v_number_u32=v_number_u32/v_numericSystem_u8;
            }
            else if( (v_numOfDigitsToDisplay_u8 == C_DisplayDefaultDigits_U8) ||
     99e:	1b 30       	cpi	r17, 0x0B	; 11
     9a0:	18 f0       	brcs	.+6      	; 0x9a8 <LCD_DisplayNumber+0xe2>
               Ex: v_num_u32 is 123 and user wants five digits then 00123 has to be displayed */
                a[i]=0;
            }
        }
        
         while(i!=0)
     9a2:	01 11       	cpse	r16, r1
     9a4:	0a c0       	rjmp	.+20     	; 0x9ba <LCD_DisplayNumber+0xf4>
     9a6:	17 c0       	rjmp	.+46     	; 0x9d6 <LCD_DisplayNumber+0x110>
            else
            {
                /* In case user expects more digits to be displayed than the actual digits in number,
                  then update the remaining digits with zero.
               Ex: v_num_u32 is 123 and user wants five digits then 00123 has to be displayed */
                a[i]=0;
     9a8:	f5 01       	movw	r30, r10
     9aa:	10 82       	st	Z, r1
        //for(i=0;((i<v_numOfDigitsToDisplay_u8) && (i<C_MaxDigitsToDisplay_U8));i++)
            LCD_DisplayChar('0');
    }
    else
    {
        for(i=0;i<v_numOfDigitsToDisplay_u8;i++)
     9ac:	0f 5f       	subi	r16, 0xFF	; 255
     9ae:	ff ef       	ldi	r31, 0xFF	; 255
     9b0:	af 1a       	sub	r10, r31
     9b2:	bf 0a       	sbc	r11, r31
     9b4:	10 13       	cpse	r17, r16
     9b6:	dd cf       	rjmp	.-70     	; 0x972 <LCD_DisplayNumber+0xac>
     9b8:	01 c0       	rjmp	.+2      	; 0x9bc <LCD_DisplayNumber+0xf6>
               Ex: v_num_u32 is 123 and user wants five digits then 00123 has to be displayed */
                a[i]=0;
            }
        }
        
         while(i!=0)
     9ba:	10 2f       	mov	r17, r16
        { 
          /* Finally get the ascii values of the digits and display*/
          LCD_DisplayChar(util_Hex2Ascii(a[i-1]));
     9bc:	fe 01       	movw	r30, r28
     9be:	e1 0f       	add	r30, r17
     9c0:	f1 1d       	adc	r31, r1
     9c2:	80 81       	ld	r24, Z
     9c4:	8a 30       	cpi	r24, 0x0A	; 10
     9c6:	10 f0       	brcs	.+4      	; 0x9cc <LCD_DisplayNumber+0x106>
     9c8:	89 5c       	subi	r24, 0xC9	; 201
     9ca:	01 c0       	rjmp	.+2      	; 0x9ce <LCD_DisplayNumber+0x108>
     9cc:	80 5d       	subi	r24, 0xD0	; 208
     9ce:	0e 94 25 04 	call	0x84a	; 0x84a <LCD_DisplayChar>
          i--;
     9d2:	11 50       	subi	r17, 0x01	; 1
               Ex: v_num_u32 is 123 and user wants five digits then 00123 has to be displayed */
                a[i]=0;
            }
        }
        
         while(i!=0)
     9d4:	99 f7       	brne	.-26     	; 0x9bc <LCD_DisplayNumber+0xf6>
          /* Finally get the ascii values of the digits and display*/
          LCD_DisplayChar(util_Hex2Ascii(a[i-1]));
          i--;
        }
    }
}
     9d6:	2a 96       	adiw	r28, 0x0a	; 10
     9d8:	0f b6       	in	r0, 0x3f	; 63
     9da:	f8 94       	cli
     9dc:	de bf       	out	0x3e, r29	; 62
     9de:	0f be       	out	0x3f, r0	; 63
     9e0:	cd bf       	out	0x3d, r28	; 61
     9e2:	df 91       	pop	r29
     9e4:	cf 91       	pop	r28
     9e6:	1f 91       	pop	r17
     9e8:	0f 91       	pop	r16
     9ea:	ff 90       	pop	r15
     9ec:	ef 90       	pop	r14
     9ee:	df 90       	pop	r13
     9f0:	cf 90       	pop	r12
     9f2:	bf 90       	pop	r11
     9f4:	af 90       	pop	r10
     9f6:	9f 90       	pop	r9
     9f8:	8f 90       	pop	r8
     9fa:	7f 90       	pop	r7
     9fc:	6f 90       	pop	r6
     9fe:	5f 90       	pop	r5
     a00:	4f 90       	pop	r4
     a02:	08 95       	ret

00000a04 <LCD_DisplayFloatNumber>:
    Note: Float will be disabled by default as it takes huge controller resources
         It can be enabled by changing value of Enable_LCD_DisplayFloatNumber to 1 in lcd.h
***************************************************************************************************/
#if (Enable_LCD_DisplayFloatNumber == 1)  
void LCD_DisplayFloatNumber(double v_floatNum_f32)
{
     a04:	8f 92       	push	r8
     a06:	9f 92       	push	r9
     a08:	af 92       	push	r10
     a0a:	bf 92       	push	r11
     a0c:	cf 92       	push	r12
     a0e:	df 92       	push	r13
     a10:	ef 92       	push	r14
     a12:	ff 92       	push	r15
     a14:	6b 01       	movw	r12, r22
     a16:	7c 01       	movw	r14, r24
      1.Type cast the number to int to get the integer part.
      2.Display the extracted integer part followed by a decimal point(.)
      3.Later the integer part is made zero by subtracting with the extracted integer value.
      4.Finally the fractional part is multiplied by 100000 to support 6-digit precision */

    v_decNumber_u32 = (uint32_t) v_floatNum_f32;
     a18:	0e 94 c3 08 	call	0x1186	; 0x1186 <__fixunssfsi>
     a1c:	4b 01       	movw	r8, r22
     a1e:	5c 01       	movw	r10, r24
    LCD_DisplayNumber(C_DECIMAL_U8,v_decNumber_u32,C_DisplayDefaultDigits_U8);
     a20:	2f ef       	ldi	r18, 0xFF	; 255
     a22:	ab 01       	movw	r20, r22
     a24:	bc 01       	movw	r22, r24
     a26:	8a e0       	ldi	r24, 0x0A	; 10
     a28:	0e 94 63 04 	call	0x8c6	; 0x8c6 <LCD_DisplayNumber>

    LCD_DisplayChar('.');
     a2c:	8e e2       	ldi	r24, 0x2E	; 46
     a2e:	0e 94 25 04 	call	0x84a	; 0x84a <LCD_DisplayChar>

    v_floatNum_f32 = v_floatNum_f32 - v_decNumber_u32;
    v_decNumber_u32 = v_floatNum_f32 * 1000000;
     a32:	c5 01       	movw	r24, r10
     a34:	b4 01       	movw	r22, r8
     a36:	0e 94 f2 08 	call	0x11e4	; 0x11e4 <__floatunsisf>
     a3a:	9b 01       	movw	r18, r22
     a3c:	ac 01       	movw	r20, r24
     a3e:	c7 01       	movw	r24, r14
     a40:	b6 01       	movw	r22, r12
     a42:	0e 94 56 08 	call	0x10ac	; 0x10ac <__subsf3>
     a46:	20 e0       	ldi	r18, 0x00	; 0
     a48:	34 e2       	ldi	r19, 0x24	; 36
     a4a:	44 e7       	ldi	r20, 0x74	; 116
     a4c:	59 e4       	ldi	r21, 0x49	; 73
     a4e:	0e 94 85 09 	call	0x130a	; 0x130a <__mulsf3>
    LCD_DisplayNumber(C_DECIMAL_U8,v_decNumber_u32,C_DisplayDefaultDigits_U8);
     a52:	0e 94 c3 08 	call	0x1186	; 0x1186 <__fixunssfsi>
     a56:	ab 01       	movw	r20, r22
     a58:	bc 01       	movw	r22, r24
     a5a:	2f ef       	ldi	r18, 0xFF	; 255
     a5c:	8a e0       	ldi	r24, 0x0A	; 10
     a5e:	0e 94 63 04 	call	0x8c6	; 0x8c6 <LCD_DisplayNumber>
}
     a62:	ff 90       	pop	r15
     a64:	ef 90       	pop	r14
     a66:	df 90       	pop	r13
     a68:	cf 90       	pop	r12
     a6a:	bf 90       	pop	r11
     a6c:	af 90       	pop	r10
     a6e:	9f 90       	pop	r9
     a70:	8f 90       	pop	r8
     a72:	08 95       	ret

00000a74 <LCD_Printf>:
        uint8_t v_Num_u8;
        LCD_Printf("num1:%u",(uint16_t)v_Num_u8); 
**************************************************************************************************/
#if ( Enable_LCD_Printf   == 1 ) 
void LCD_Printf(const char *argList, ...)
{
     a74:	4f 92       	push	r4
     a76:	5f 92       	push	r5
     a78:	6f 92       	push	r6
     a7a:	7f 92       	push	r7
     a7c:	8f 92       	push	r8
     a7e:	9f 92       	push	r9
     a80:	af 92       	push	r10
     a82:	bf 92       	push	r11
     a84:	cf 92       	push	r12
     a86:	df 92       	push	r13
     a88:	ef 92       	push	r14
     a8a:	ff 92       	push	r15
     a8c:	0f 93       	push	r16
     a8e:	1f 93       	push	r17
     a90:	cf 93       	push	r28
     a92:	df 93       	push	r29
     a94:	cd b7       	in	r28, 0x3d	; 61
     a96:	de b7       	in	r29, 0x3e	; 62
     a98:	fe 01       	movw	r30, r28
     a9a:	73 96       	adiw	r30, 0x13	; 19
     a9c:	81 90       	ld	r8, Z+
     a9e:	91 90       	ld	r9, Z+
    uint8_t v_numOfDigitsToDisp_u8;
#if (Enable_LCD_DisplayFloatNumber == 1)  
    double v_floatNum_f32;
#endif

    va_start(argp, argList);
     aa0:	7f 01       	movw	r14, r30

    /* Loop through the list to extract all the input arguments */
    for(ptr = argList; *ptr != '\0'; ptr++)
     aa2:	d4 01       	movw	r26, r8
     aa4:	8c 91       	ld	r24, X
     aa6:	88 23       	and	r24, r24
     aa8:	09 f4       	brne	.+2      	; 0xaac <LCD_Printf+0x38>
     aaa:	07 c1       	rjmp	.+526    	; 0xcba <LCD_Printf+0x246>
                break;

            case 'B':  /* Argument type is of binary,Read int and convert to binary */
                v_num_u32 = va_arg(argp, uint32_t);
                if(v_numOfDigitsToDisp_u8 == C_MaxDigitsToDisplayUsingPrintf_U8)
                   v_numOfDigitsToDisp_u8 = 16;                
     aac:	68 94       	set
     aae:	aa 24       	eor	r10, r10
     ab0:	a4 f8       	bld	r10, 4
                   ch = *ptr;
                }
            }
            else
            {
              v_numOfDigitsToDisp_u8 = C_MaxDigitsToDisplayUsingPrintf_U8;
     ab2:	bb 24       	eor	r11, r11
     ab4:	ba 94       	dec	r11
        ch= *ptr;
        if(ch == '%')         /*Check for '%' as there will be format specifier after it */
        {
            ptr++;
            ch = *ptr;
           if((ch>=0x30) && (ch<=0x39))
     ab6:	00 e0       	ldi	r16, 0x00	; 0
    /* Loop through the list to extract all the input arguments */
    for(ptr = argList; *ptr != '\0'; ptr++)
    {

        ch= *ptr;
        if(ch == '%')         /*Check for '%' as there will be format specifier after it */
     ab8:	85 32       	cpi	r24, 0x25	; 37
     aba:	09 f0       	breq	.+2      	; 0xabe <LCD_Printf+0x4a>
     abc:	dc c0       	rjmp	.+440    	; 0xc76 <LCD_Printf+0x202>
        {
            ptr++;
     abe:	64 01       	movw	r12, r8
     ac0:	bf ef       	ldi	r27, 0xFF	; 255
     ac2:	cb 1a       	sub	r12, r27
     ac4:	db 0a       	sbc	r13, r27
            ch = *ptr;
     ac6:	d4 01       	movw	r26, r8
     ac8:	11 96       	adiw	r26, 0x01	; 1
     aca:	ec 91       	ld	r30, X
     acc:	11 97       	sbiw	r26, 0x01	; 1
           if((ch>=0x30) && (ch<=0x39))
     ace:	80 ed       	ldi	r24, 0xD0	; 208
     ad0:	8e 0f       	add	r24, r30
     ad2:	8a 30       	cpi	r24, 0x0A	; 10
     ad4:	08 f0       	brcs	.+2      	; 0xad8 <LCD_Printf+0x64>
     ad6:	e6 c0       	rjmp	.+460    	; 0xca4 <LCD_Printf+0x230>
     ad8:	12 96       	adiw	r26, 0x02	; 2
     ada:	10 2f       	mov	r17, r16
     adc:	21 2f       	mov	r18, r17
     ade:	22 0f       	add	r18, r18
     ae0:	82 2f       	mov	r24, r18
     ae2:	88 0f       	add	r24, r24
     ae4:	88 0f       	add	r24, r24
     ae6:	28 0f       	add	r18, r24
     ae8:	20 53       	subi	r18, 0x30	; 48
            {
               v_numOfDigitsToDisp_u8 = 0;
               while((ch>=0x30) && (ch<=0x39))
                {
                   v_numOfDigitsToDisp_u8 = (v_numOfDigitsToDisp_u8 * 10) + (ch-0x30);
     aea:	12 2f       	mov	r17, r18
     aec:	1e 0f       	add	r17, r30
                   ptr++;
     aee:	6d 01       	movw	r12, r26
                   ch = *ptr;
     af0:	ed 91       	ld	r30, X+
            ptr++;
            ch = *ptr;
           if((ch>=0x30) && (ch<=0x39))
            {
               v_numOfDigitsToDisp_u8 = 0;
               while((ch>=0x30) && (ch<=0x39))
     af2:	80 ed       	ldi	r24, 0xD0	; 208
     af4:	8e 0f       	add	r24, r30
     af6:	8a 30       	cpi	r24, 0x0A	; 10
     af8:	88 f3       	brcs	.-30     	; 0xadc <LCD_Printf+0x68>
            {
              v_numOfDigitsToDisp_u8 = C_MaxDigitsToDisplayUsingPrintf_U8;
            }                


            switch(ch)       /* Decode the type of the argument */
     afa:	8e 2f       	mov	r24, r30
     afc:	90 e0       	ldi	r25, 0x00	; 0
     afe:	fc 01       	movw	r30, r24
     b00:	b5 97       	sbiw	r30, 0x25	; 37
     b02:	e4 35       	cpi	r30, 0x54	; 84
     b04:	f1 05       	cpc	r31, r1
     b06:	08 f0       	brcs	.+2      	; 0xb0a <LCD_Printf+0x96>
     b08:	b9 c0       	rjmp	.+370    	; 0xc7c <LCD_Printf+0x208>
     b0a:	e6 5d       	subi	r30, 0xD6	; 214
     b0c:	ff 4f       	sbci	r31, 0xFF	; 255
     b0e:	0c 94 4c 0a 	jmp	0x1498	; 0x1498 <__tablejump2__>
            {
            case 'C':
            case 'c':     /* Argument type is of char, hence read char data from the argp */
                ch = va_arg(argp, int);
     b12:	47 01       	movw	r8, r14
     b14:	b2 e0       	ldi	r27, 0x02	; 2
     b16:	8b 0e       	add	r8, r27
     b18:	91 1c       	adc	r9, r1
                LCD_DisplayChar(ch);
     b1a:	f7 01       	movw	r30, r14
     b1c:	80 81       	ld	r24, Z
     b1e:	0e 94 25 04 	call	0x84a	; 0x84a <LCD_DisplayChar>

            switch(ch)       /* Decode the type of the argument */
            {
            case 'C':
            case 'c':     /* Argument type is of char, hence read char data from the argp */
                ch = va_arg(argp, int);
     b22:	74 01       	movw	r14, r8
                LCD_DisplayChar(ch);
                break;
     b24:	ab c0       	rjmp	.+342    	; 0xc7c <LCD_Printf+0x208>
                   ch = *ptr;
                }
            }
            else
            {
              v_numOfDigitsToDisp_u8 = C_MaxDigitsToDisplayUsingPrintf_U8;
     b26:	1b 2d       	mov	r17, r11
                ch = va_arg(argp, int);
                LCD_DisplayChar(ch);
                break;

            case 'd':    /* Argument type is of signed integer, hence read 16bit data from the argp */
                v_num_s16 = va_arg(argp, int);
     b28:	f7 01       	movw	r30, r14
     b2a:	80 80       	ld	r8, Z
     b2c:	91 80       	ldd	r9, Z+1	; 0x01
     b2e:	f2 e0       	ldi	r31, 0x02	; 2
     b30:	ef 0e       	add	r14, r31
     b32:	f1 1c       	adc	r15, r1
                if(v_num_s16<0)
     b34:	99 20       	and	r9, r9
     b36:	34 f4       	brge	.+12     	; 0xb44 <LCD_Printf+0xd0>
                 { /* If the number is -ve then display the 2's complement along with '-' sign */ 
                   v_num_s16 = -v_num_s16;
     b38:	91 94       	neg	r9
     b3a:	81 94       	neg	r8
     b3c:	91 08       	sbc	r9, r1
                   LCD_DisplayChar('-');
     b3e:	8d e2       	ldi	r24, 0x2D	; 45
     b40:	0e 94 25 04 	call	0x84a	; 0x84a <LCD_DisplayChar>
                 }
                LCD_DisplayNumber(C_DECIMAL_U8,v_num_s16,v_numOfDigitsToDisp_u8);
     b44:	a4 01       	movw	r20, r8
     b46:	99 0c       	add	r9, r9
     b48:	66 0b       	sbc	r22, r22
     b4a:	77 0b       	sbc	r23, r23
     b4c:	21 2f       	mov	r18, r17
     b4e:	8a e0       	ldi	r24, 0x0A	; 10
     b50:	0e 94 63 04 	call	0x8c6	; 0x8c6 <LCD_DisplayNumber>
                break;
     b54:	93 c0       	rjmp	.+294    	; 0xc7c <LCD_Printf+0x208>
                   ch = *ptr;
                }
            }
            else
            {
              v_numOfDigitsToDisp_u8 = C_MaxDigitsToDisplayUsingPrintf_U8;
     b56:	1b 2d       	mov	r17, r11
                 }
                LCD_DisplayNumber(C_DECIMAL_U8,v_num_s16,v_numOfDigitsToDisp_u8);
                break;
                
            case 'D':    /* Argument type is of integer, hence read 16bit data from the argp */
                v_num_s32 = va_arg(argp, sint32_t);
     b58:	f7 01       	movw	r30, r14
     b5a:	40 80       	ld	r4, Z
     b5c:	51 80       	ldd	r5, Z+1	; 0x01
     b5e:	62 80       	ldd	r6, Z+2	; 0x02
     b60:	73 80       	ldd	r7, Z+3	; 0x03
     b62:	24 e0       	ldi	r18, 0x04	; 4
     b64:	e2 0e       	add	r14, r18
     b66:	f1 1c       	adc	r15, r1
                if(v_num_s32<0)
     b68:	77 20       	and	r7, r7
     b6a:	5c f4       	brge	.+22     	; 0xb82 <LCD_Printf+0x10e>
                 { /* If the number is -ve then display the 2's complement along with '-' sign */
                   v_num_s32 = -v_num_s32;
     b6c:	70 94       	com	r7
     b6e:	60 94       	com	r6
     b70:	50 94       	com	r5
     b72:	40 94       	com	r4
     b74:	41 1c       	adc	r4, r1
     b76:	51 1c       	adc	r5, r1
     b78:	61 1c       	adc	r6, r1
     b7a:	71 1c       	adc	r7, r1
                   LCD_DisplayChar('-');
     b7c:	8d e2       	ldi	r24, 0x2D	; 45
     b7e:	0e 94 25 04 	call	0x84a	; 0x84a <LCD_DisplayChar>
                 }
                LCD_DisplayNumber(C_DECIMAL_U8,v_num_s32,v_numOfDigitsToDisp_u8);              
     b82:	21 2f       	mov	r18, r17
     b84:	b3 01       	movw	r22, r6
     b86:	a2 01       	movw	r20, r4
     b88:	8a e0       	ldi	r24, 0x0A	; 10
     b8a:	0e 94 63 04 	call	0x8c6	; 0x8c6 <LCD_DisplayNumber>
                break;    
     b8e:	76 c0       	rjmp	.+236    	; 0xc7c <LCD_Printf+0x208>
                   ch = *ptr;
                }
            }
            else
            {
              v_numOfDigitsToDisp_u8 = C_MaxDigitsToDisplayUsingPrintf_U8;
     b90:	1b 2d       	mov	r17, r11
                 }
                LCD_DisplayNumber(C_DECIMAL_U8,v_num_s32,v_numOfDigitsToDisp_u8);              
                break;    

            case 'u':    /* Argument type is of unsigned integer, hence read 16bit unsigned data */
                v_num_u16 = va_arg(argp, int);
     b92:	f7 01       	movw	r30, r14
                LCD_DisplayNumber(C_DECIMAL_U8,v_num_u16,v_numOfDigitsToDisp_u8);
     b94:	40 81       	ld	r20, Z
     b96:	51 81       	ldd	r21, Z+1	; 0x01
     b98:	82 e0       	ldi	r24, 0x02	; 2
     b9a:	e8 0e       	add	r14, r24
     b9c:	f1 1c       	adc	r15, r1
     b9e:	60 e0       	ldi	r22, 0x00	; 0
     ba0:	70 e0       	ldi	r23, 0x00	; 0
     ba2:	21 2f       	mov	r18, r17
     ba4:	8a e0       	ldi	r24, 0x0A	; 10
     ba6:	0e 94 63 04 	call	0x8c6	; 0x8c6 <LCD_DisplayNumber>
                break;
     baa:	68 c0       	rjmp	.+208    	; 0xc7c <LCD_Printf+0x208>
                   ch = *ptr;
                }
            }
            else
            {
              v_numOfDigitsToDisp_u8 = C_MaxDigitsToDisplayUsingPrintf_U8;
     bac:	1b 2d       	mov	r17, r11
                v_num_u16 = va_arg(argp, int);
                LCD_DisplayNumber(C_DECIMAL_U8,v_num_u16,v_numOfDigitsToDisp_u8);
                break;
            
            case 'U':    /* Argument type is of integer, hence read 32bit unsigend data */
                v_num_u32 = va_arg(argp, uint32_t);
     bae:	f7 01       	movw	r30, r14
                LCD_DisplayNumber(C_DECIMAL_U8,v_num_u32,v_numOfDigitsToDisp_u8);               
     bb0:	40 81       	ld	r20, Z
     bb2:	51 81       	ldd	r21, Z+1	; 0x01
     bb4:	62 81       	ldd	r22, Z+2	; 0x02
     bb6:	73 81       	ldd	r23, Z+3	; 0x03
     bb8:	a4 e0       	ldi	r26, 0x04	; 4
     bba:	ea 0e       	add	r14, r26
     bbc:	f1 1c       	adc	r15, r1
     bbe:	21 2f       	mov	r18, r17
     bc0:	8a e0       	ldi	r24, 0x0A	; 10
     bc2:	0e 94 63 04 	call	0x8c6	; 0x8c6 <LCD_DisplayNumber>
                break;            
     bc6:	5a c0       	rjmp	.+180    	; 0xc7c <LCD_Printf+0x208>
                   ch = *ptr;
                }
            }
            else
            {
              v_numOfDigitsToDisp_u8 = C_MaxDigitsToDisplayUsingPrintf_U8;
     bc8:	1b 2d       	mov	r17, r11
                v_num_u32 = va_arg(argp, uint32_t);
                LCD_DisplayNumber(C_DECIMAL_U8,v_num_u32,v_numOfDigitsToDisp_u8);               
                break;            

            case 'x':  /* Argument type is of hex, hence hexadecimal data from the argp */
                v_num_u16 = va_arg(argp, int);
     bca:	f7 01       	movw	r30, r14
                LCD_DisplayNumber(C_HEX_U8,v_num_u16,v_numOfDigitsToDisp_u8);
     bcc:	40 81       	ld	r20, Z
     bce:	51 81       	ldd	r21, Z+1	; 0x01
     bd0:	b2 e0       	ldi	r27, 0x02	; 2
     bd2:	eb 0e       	add	r14, r27
     bd4:	f1 1c       	adc	r15, r1
     bd6:	60 e0       	ldi	r22, 0x00	; 0
     bd8:	70 e0       	ldi	r23, 0x00	; 0
     bda:	21 2f       	mov	r18, r17
     bdc:	8a 2d       	mov	r24, r10
     bde:	0e 94 63 04 	call	0x8c6	; 0x8c6 <LCD_DisplayNumber>
                break;
     be2:	4c c0       	rjmp	.+152    	; 0xc7c <LCD_Printf+0x208>
                   ch = *ptr;
                }
            }
            else
            {
              v_numOfDigitsToDisp_u8 = C_MaxDigitsToDisplayUsingPrintf_U8;
     be4:	1b 2d       	mov	r17, r11
                v_num_u16 = va_arg(argp, int);
                LCD_DisplayNumber(C_HEX_U8,v_num_u16,v_numOfDigitsToDisp_u8);
                break;

            case 'X':  /* Argument type is of hex, hence hexadecimal data from the argp */
                v_num_u32 = va_arg(argp, uint32_t);
     be6:	f7 01       	movw	r30, r14
                LCD_DisplayNumber(C_HEX_U8,v_num_u32,v_numOfDigitsToDisp_u8);                
     be8:	40 81       	ld	r20, Z
     bea:	51 81       	ldd	r21, Z+1	; 0x01
     bec:	62 81       	ldd	r22, Z+2	; 0x02
     bee:	73 81       	ldd	r23, Z+3	; 0x03
     bf0:	e4 e0       	ldi	r30, 0x04	; 4
     bf2:	ee 0e       	add	r14, r30
     bf4:	f1 1c       	adc	r15, r1
     bf6:	21 2f       	mov	r18, r17
     bf8:	8a 2d       	mov	r24, r10
     bfa:	0e 94 63 04 	call	0x8c6	; 0x8c6 <LCD_DisplayNumber>
                break;
     bfe:	3e c0       	rjmp	.+124    	; 0xc7c <LCD_Printf+0x208>
                   ch = *ptr;
                }
            }
            else
            {
              v_numOfDigitsToDisp_u8 = C_MaxDigitsToDisplayUsingPrintf_U8;
     c00:	1b 2d       	mov	r17, r11
                LCD_DisplayNumber(C_HEX_U8,v_num_u32,v_numOfDigitsToDisp_u8);                
                break;

            
            case 'b':  /* Argument type is of binary,Read int and convert to binary */
                v_num_u16 = va_arg(argp, int);
     c02:	f7 01       	movw	r30, r14
     c04:	40 81       	ld	r20, Z
     c06:	51 81       	ldd	r21, Z+1	; 0x01
     c08:	f2 e0       	ldi	r31, 0x02	; 2
     c0a:	ef 0e       	add	r14, r31
     c0c:	f1 1c       	adc	r15, r1
                if(v_numOfDigitsToDisp_u8 == C_MaxDigitsToDisplayUsingPrintf_U8)
     c0e:	1f 3f       	cpi	r17, 0xFF	; 255
     c10:	09 f4       	brne	.+2      	; 0xc14 <LCD_Printf+0x1a0>
                   v_numOfDigitsToDisp_u8 = 16;
     c12:	1a 2d       	mov	r17, r10
                LCD_DisplayNumber(C_BINARY_U8,v_num_u16,v_numOfDigitsToDisp_u8);                
     c14:	60 e0       	ldi	r22, 0x00	; 0
     c16:	70 e0       	ldi	r23, 0x00	; 0
     c18:	21 2f       	mov	r18, r17
     c1a:	82 e0       	ldi	r24, 0x02	; 2
     c1c:	0e 94 63 04 	call	0x8c6	; 0x8c6 <LCD_DisplayNumber>
                break;
     c20:	2d c0       	rjmp	.+90     	; 0xc7c <LCD_Printf+0x208>

            case 'B':  /* Argument type is of binary,Read int and convert to binary */
                v_num_u32 = va_arg(argp, uint32_t);
     c22:	f7 01       	movw	r30, r14
     c24:	40 81       	ld	r20, Z
     c26:	51 81       	ldd	r21, Z+1	; 0x01
     c28:	62 81       	ldd	r22, Z+2	; 0x02
     c2a:	73 81       	ldd	r23, Z+3	; 0x03
     c2c:	24 e0       	ldi	r18, 0x04	; 4
     c2e:	e2 0e       	add	r14, r18
     c30:	f1 1c       	adc	r15, r1
                if(v_numOfDigitsToDisp_u8 == C_MaxDigitsToDisplayUsingPrintf_U8)
     c32:	1f 3f       	cpi	r17, 0xFF	; 255
     c34:	09 f4       	brne	.+2      	; 0xc38 <LCD_Printf+0x1c4>
                   v_numOfDigitsToDisp_u8 = 16;                
     c36:	1a 2d       	mov	r17, r10
                LCD_DisplayNumber(C_BINARY_U8,v_num_u32,v_numOfDigitsToDisp_u8);                
     c38:	21 2f       	mov	r18, r17
     c3a:	82 e0       	ldi	r24, 0x02	; 2
     c3c:	0e 94 63 04 	call	0x8c6	; 0x8c6 <LCD_DisplayNumber>
                break;
     c40:	1d c0       	rjmp	.+58     	; 0xc7c <LCD_Printf+0x208>


            case 'F':
            case 'f': /* Argument type is of float, hence read double data from the argp */
#if (Enable_LCD_DisplayFloatNumber == 1)  
                v_floatNum_f32 = va_arg(argp, double);              
     c42:	f7 01       	movw	r30, r14
                LCD_DisplayFloatNumber(v_floatNum_f32);
     c44:	60 81       	ld	r22, Z
     c46:	71 81       	ldd	r23, Z+1	; 0x01
     c48:	82 81       	ldd	r24, Z+2	; 0x02
     c4a:	93 81       	ldd	r25, Z+3	; 0x03
     c4c:	a4 e0       	ldi	r26, 0x04	; 4
     c4e:	ea 0e       	add	r14, r26
     c50:	f1 1c       	adc	r15, r1
     c52:	0e 94 02 05 	call	0xa04	; 0xa04 <LCD_DisplayFloatNumber>
#endif
                break;
     c56:	12 c0       	rjmp	.+36     	; 0xc7c <LCD_Printf+0x208>


            case 'S':
            case 's': /* Argument type is of string, hence get the pointer to sting passed */
                str = va_arg(argp, char *);
     c58:	47 01       	movw	r8, r14
     c5a:	b2 e0       	ldi	r27, 0x02	; 2
     c5c:	8b 0e       	add	r8, r27
     c5e:	91 1c       	adc	r9, r1
                LCD_DisplayString(str);                
     c60:	f7 01       	movw	r30, r14
     c62:	80 81       	ld	r24, Z
     c64:	91 81       	ldd	r25, Z+1	; 0x01
     c66:	0e 94 54 04 	call	0x8a8	; 0x8a8 <LCD_DisplayString>
                break;


            case 'S':
            case 's': /* Argument type is of string, hence get the pointer to sting passed */
                str = va_arg(argp, char *);
     c6a:	74 01       	movw	r14, r8
                LCD_DisplayString(str);                
                break;
     c6c:	07 c0       	rjmp	.+14     	; 0xc7c <LCD_Printf+0x208>

            case '%':
                LCD_DisplayChar('%');
     c6e:	85 e2       	ldi	r24, 0x25	; 37
     c70:	0e 94 25 04 	call	0x84a	; 0x84a <LCD_DisplayChar>
                break;
     c74:	03 c0       	rjmp	.+6      	; 0xc7c <LCD_Printf+0x208>
            }
        }
        else
        {
            /* As '%' is not detected display/transmit the char passed */
            LCD_DisplayChar(ch);
     c76:	0e 94 25 04 	call	0x84a	; 0x84a <LCD_DisplayChar>
     c7a:	64 01       	movw	r12, r8
#endif

    va_start(argp, argList);

    /* Loop through the list to extract all the input arguments */
    for(ptr = argList; *ptr != '\0'; ptr++)
     c7c:	46 01       	movw	r8, r12
     c7e:	ff ef       	ldi	r31, 0xFF	; 255
     c80:	8f 1a       	sub	r8, r31
     c82:	9f 0a       	sbc	r9, r31
     c84:	d6 01       	movw	r26, r12
     c86:	11 96       	adiw	r26, 0x01	; 1
     c88:	8c 91       	ld	r24, X
     c8a:	81 11       	cpse	r24, r1
     c8c:	15 cf       	rjmp	.-470    	; 0xab8 <LCD_Printf+0x44>
     c8e:	15 c0       	rjmp	.+42     	; 0xcba <LCD_Printf+0x246>
                   v_numOfDigitsToDisp_u8 = 16;
                LCD_DisplayNumber(C_BINARY_U8,v_num_u16,v_numOfDigitsToDisp_u8);                
                break;

            case 'B':  /* Argument type is of binary,Read int and convert to binary */
                v_num_u32 = va_arg(argp, uint32_t);
     c90:	f7 01       	movw	r30, r14
     c92:	40 81       	ld	r20, Z
     c94:	51 81       	ldd	r21, Z+1	; 0x01
     c96:	62 81       	ldd	r22, Z+2	; 0x02
     c98:	73 81       	ldd	r23, Z+3	; 0x03
     c9a:	b4 e0       	ldi	r27, 0x04	; 4
     c9c:	eb 0e       	add	r14, r27
     c9e:	f1 1c       	adc	r15, r1
                if(v_numOfDigitsToDisp_u8 == C_MaxDigitsToDisplayUsingPrintf_U8)
                   v_numOfDigitsToDisp_u8 = 16;                
     ca0:	1a 2d       	mov	r17, r10
     ca2:	ca cf       	rjmp	.-108    	; 0xc38 <LCD_Printf+0x1c4>
            {
              v_numOfDigitsToDisp_u8 = C_MaxDigitsToDisplayUsingPrintf_U8;
            }                


            switch(ch)       /* Decode the type of the argument */
     ca4:	8e 2f       	mov	r24, r30
     ca6:	90 e0       	ldi	r25, 0x00	; 0
     ca8:	fc 01       	movw	r30, r24
     caa:	b5 97       	sbiw	r30, 0x25	; 37
     cac:	e4 35       	cpi	r30, 0x54	; 84
     cae:	f1 05       	cpc	r31, r1
     cb0:	28 f7       	brcc	.-54     	; 0xc7c <LCD_Printf+0x208>
     cb2:	e2 58       	subi	r30, 0x82	; 130
     cb4:	ff 4f       	sbci	r31, 0xFF	; 255
     cb6:	0c 94 4c 0a 	jmp	0x1498	; 0x1498 <__tablejump2__>
            LCD_DisplayChar(ch);
        }
    }

    va_end(argp);
}
     cba:	df 91       	pop	r29
     cbc:	cf 91       	pop	r28
     cbe:	1f 91       	pop	r17
     cc0:	0f 91       	pop	r16
     cc2:	ff 90       	pop	r15
     cc4:	ef 90       	pop	r14
     cc6:	df 90       	pop	r13
     cc8:	cf 90       	pop	r12
     cca:	bf 90       	pop	r11
     ccc:	af 90       	pop	r10
     cce:	9f 90       	pop	r9
     cd0:	8f 90       	pop	r8
     cd2:	7f 90       	pop	r7
     cd4:	6f 90       	pop	r6
     cd6:	5f 90       	pop	r5
     cd8:	4f 90       	pop	r4
     cda:	08 95       	ret

00000cdc <RTC_values>:
	return 0;
}

void RTC_values()
{
	rtc.hour = 0x00; //  10:40:20 am
     cdc:	ea eb       	ldi	r30, 0xBA	; 186
     cde:	f0 e0       	ldi	r31, 0x00	; 0
     ce0:	12 82       	std	Z+2, r1	; 0x02
	rtc.min =  0x00;
     ce2:	11 82       	std	Z+1, r1	; 0x01
	rtc.sec =  0x00;
     ce4:	10 82       	st	Z, r1

	rtc.date = 0x01; //1st Jan 2016
     ce6:	81 e0       	ldi	r24, 0x01	; 1
     ce8:	84 83       	std	Z+4, r24	; 0x04
	rtc.month = 0x01;
     cea:	85 83       	std	Z+5, r24	; 0x05
	rtc.year = 0x16;
     cec:	86 e1       	ldi	r24, 0x16	; 22
     cee:	86 83       	std	Z+6, r24	; 0x06
	rtc.weekDay = 5; // Friday: 5th day of week considering monday as first day.
     cf0:	85 e0       	ldi	r24, 0x05	; 5
     cf2:	83 83       	std	Z+3, r24	; 0x03
     cf4:	08 95       	ret

00000cf6 <adc_init>:
}

/*ADC Function Definitions*/
void adc_init(void)
{
	ADCSRA=(1<<ADEN)|(1<<ADSC)|(1<<ADATE)|(1<<ADPS2);
     cf6:	84 ee       	ldi	r24, 0xE4	; 228
     cf8:	86 b9       	out	0x06, r24	; 6
	SFIOR=0x00;
     cfa:	10 be       	out	0x30, r1	; 48
     cfc:	08 95       	ret

00000cfe <read_adc_channel>:
}
int read_adc_channel(unsigned char channel)
{
	int adc_value;
	unsigned char temp;
	ADMUX=(1<<REFS0)|channel;
     cfe:	80 64       	ori	r24, 0x40	; 64
     d00:	87 b9       	out	0x07, r24	; 7
	#else
		//round up by default
		__ticks_dc = (uint32_t)(ceil(fabs(__tmp)));
	#endif

	__builtin_avr_delay_cycles(__ticks_dc);
     d02:	8f ec       	ldi	r24, 0xCF	; 207
     d04:	97 e0       	ldi	r25, 0x07	; 7
     d06:	01 97       	sbiw	r24, 0x01	; 1
     d08:	f1 f7       	brne	.-4      	; 0xd06 <read_adc_channel+0x8>
     d0a:	00 c0       	rjmp	.+0      	; 0xd0c <read_adc_channel+0xe>
     d0c:	00 00       	nop
	_delay_ms(1);
	temp=ADCL;
     d0e:	84 b1       	in	r24, 0x04	; 4
	adc_value=ADCH;
     d10:	25 b1       	in	r18, 0x05	; 5
	adc_value=(adc_value<<8)|temp;
     d12:	90 e0       	ldi	r25, 0x00	; 0
	return adc_value;
}
     d14:	92 2b       	or	r25, r18
     d16:	08 95       	ret

00000d18 <main>:
void adc_init();
void RTC_values();
int read_adc_channel(unsigned char channel);

int main(void)
{
     d18:	3f 92       	push	r3
     d1a:	4f 92       	push	r4
     d1c:	5f 92       	push	r5
     d1e:	6f 92       	push	r6
     d20:	7f 92       	push	r7
     d22:	8f 92       	push	r8
     d24:	9f 92       	push	r9
     d26:	af 92       	push	r10
     d28:	bf 92       	push	r11
     d2a:	cf 92       	push	r12
     d2c:	df 92       	push	r13
     d2e:	ef 92       	push	r14
     d30:	ff 92       	push	r15
     d32:	0f 93       	push	r16
     d34:	1f 93       	push	r17
     d36:	cf 93       	push	r28
     d38:	df 93       	push	r29
     d3a:	cd b7       	in	r28, 0x3d	; 61
     d3c:	de b7       	in	r29, 0x3e	; 62
     d3e:	29 97       	sbiw	r28, 0x09	; 9
     d40:	0f b6       	in	r0, 0x3f	; 63
     d42:	f8 94       	cli
     d44:	de bf       	out	0x3e, r29	; 62
     d46:	0f be       	out	0x3f, r0	; 63
     d48:	cd bf       	out	0x3d, r28	; 61
	DDRB = 0xFF;
     d4a:	8f ef       	ldi	r24, 0xFF	; 255
     d4c:	87 bb       	out	0x17, r24	; 23
	PORTB = 0xFF;
     d4e:	88 bb       	out	0x18, r24	; 24
	
	RTC_values();
     d50:	0e 94 6e 06 	call	0xcdc	; 0xcdc <RTC_values>
	
	LCD_SetUp(PC_6,P_NC,PC_7,P_NC,P_NC,P_NC,P_NC,PD_4,PD_5,PD_6,PD_7);
     d54:	8f e1       	ldi	r24, 0x1F	; 31
     d56:	8f 93       	push	r24
     d58:	8e e1       	ldi	r24, 0x1E	; 30
     d5a:	8f 93       	push	r24
     d5c:	0f 2e       	mov	r0, r31
     d5e:	fd e1       	ldi	r31, 0x1D	; 29
     d60:	8f 2e       	mov	r8, r31
     d62:	f0 2d       	mov	r31, r0
     d64:	0f 2e       	mov	r0, r31
     d66:	fc e1       	ldi	r31, 0x1C	; 28
     d68:	af 2e       	mov	r10, r31
     d6a:	f0 2d       	mov	r31, r0
     d6c:	cc 24       	eor	r12, r12
     d6e:	ca 94       	dec	r12
     d70:	ee 24       	eor	r14, r14
     d72:	ea 94       	dec	r14
     d74:	0f ef       	ldi	r16, 0xFF	; 255
     d76:	2f ef       	ldi	r18, 0xFF	; 255
     d78:	47 e1       	ldi	r20, 0x17	; 23
     d7a:	6f ef       	ldi	r22, 0xFF	; 255
     d7c:	86 e1       	ldi	r24, 0x16	; 22
     d7e:	0e 94 2c 03 	call	0x658	; 0x658 <LCD_SetUp>
	LCD_Init(2,16);
     d82:	60 e1       	ldi	r22, 0x10	; 16
     d84:	82 e0       	ldi	r24, 0x02	; 2
     d86:	0e 94 c6 03 	call	0x78c	; 0x78c <LCD_Init>
	RTC_Init();
     d8a:	0e 94 ee 07 	call	0xfdc	; 0xfdc <RTC_Init>
	
	//ADMUX = 0b01100000;
	//ADCSRA = 0b10000111;
	currentOff = 4;
     d8e:	84 e0       	ldi	r24, 0x04	; 4
     d90:	90 e0       	ldi	r25, 0x00	; 0
     d92:	90 93 b9 00 	sts	0x00B9, r25	; 0x8000b9 <currentOff+0x1>
     d96:	80 93 b8 00 	sts	0x00B8, r24	; 0x8000b8 <currentOff>
	wait = 0;
     d9a:	10 92 b7 00 	sts	0x00B7, r1	; 0x8000b7 <wait+0x1>
     d9e:	10 92 b6 00 	sts	0x00B6, r1	; 0x8000b6 <wait>
	char arr[9];
	strcpy(arr, "Life : ");
     da2:	88 e0       	ldi	r24, 0x08	; 8
     da4:	ea e7       	ldi	r30, 0x7A	; 122
     da6:	f0 e0       	ldi	r31, 0x00	; 0
     da8:	de 01       	movw	r26, r28
     daa:	11 96       	adiw	r26, 0x01	; 1
     dac:	01 90       	ld	r0, Z+
     dae:	0d 92       	st	X+, r0
     db0:	8a 95       	dec	r24
     db2:	e1 f7       	brne	.-8      	; 0xdac <main+0x94>
	arr[7] = life + '0';
     db4:	80 91 78 00 	lds	r24, 0x0078	; 0x800078 <life>
     db8:	80 5d       	subi	r24, 0xD0	; 208
     dba:	88 87       	std	Y+8, r24	; 0x08
	arr[8] = '\0';
     dbc:	19 86       	std	Y+9, r1	; 0x09
     dbe:	0f 90       	pop	r0
     dc0:	0f 90       	pop	r0
	
	int analog_ir_sensor_value;
	int start = 0;
     dc2:	c1 2c       	mov	r12, r1
     dc4:	d1 2c       	mov	r13, r1
			}
			
			for(int i = 0; i < 5; i++)
			{
				ADMUX = admux[i];
				ADCSRA = 0b10000111;
     dc6:	0f 2e       	mov	r0, r31
     dc8:	f7 e8       	ldi	r31, 0x87	; 135
     dca:	5f 2e       	mov	r5, r31
     dcc:	f0 2d       	mov	r31, r0
			}
			wait++;
			
			LCD_Clear();
			LCD_GoToLine(0);
			LCD_Printf(arr);
     dce:	ce 01       	movw	r24, r28
     dd0:	01 96       	adiw	r24, 0x01	; 1
     dd2:	4c 01       	movw	r8, r24
		else if(start == 1)
		{
			if(wait == 10)
			{
				wait = 0;
				currentOff = (currentOff + 1) % 5;
     dd4:	0f 2e       	mov	r0, r31
     dd6:	f5 e0       	ldi	r31, 0x05	; 5
     dd8:	6f 2e       	mov	r6, r31
     dda:	71 2c       	mov	r7, r1
     ddc:	f0 2d       	mov	r31, r0
				RTC_SetDateTime(&rtc);
				//ADCSRA = 0b10000111;
			}
			LCD_Clear();
			LCD_GoToLine(0);
			LCD_Printf("Start");
     dde:	0f 2e       	mov	r0, r31
     de0:	f2 e8       	ldi	r31, 0x82	; 130
     de2:	af 2e       	mov	r10, r31
     de4:	f0 e0       	ldi	r31, 0x00	; 0
     de6:	bf 2e       	mov	r11, r31
     de8:	f0 2d       	mov	r31, r0
			analog_ir_sensor_value = analog_ir_sensor_value/256;
			
			if(analog_ir_sensor_value < 2)
			{
				//object detected
				start = 1;
     dea:	33 24       	eor	r3, r3
     dec:	33 94       	inc	r3
     dee:	41 2c       	mov	r4, r1
	int start = 0;
	
	/* Replace with your application code */
	while (1)
	{
		if(start == 0)
     df0:	c1 14       	cp	r12, r1
     df2:	d1 04       	cpc	r13, r1
     df4:	d1 f4       	brne	.+52     	; 0xe2a <main+0x112>
		{
			adc_init();
     df6:	0e 94 7b 06 	call	0xcf6	; 0xcf6 <adc_init>
			/*Reading analog ir sensor value*/
			analog_ir_sensor_value=read_adc_channel(1);
     dfa:	81 e0       	ldi	r24, 0x01	; 1
     dfc:	0e 94 7f 06 	call	0xcfe	; 0xcfe <read_adc_channel>
			analog_ir_sensor_value = analog_ir_sensor_value/256;
			
			if(analog_ir_sensor_value < 2)
     e00:	81 15       	cp	r24, r1
     e02:	92 40       	sbci	r25, 0x02	; 2
     e04:	34 f4       	brge	.+12     	; 0xe12 <main+0xfa>
			{
				//object detected
				start = 1;
				RTC_SetDateTime(&rtc);
     e06:	8a eb       	ldi	r24, 0xBA	; 186
     e08:	90 e0       	ldi	r25, 0x00	; 0
     e0a:	0e 94 fe 07 	call	0xffc	; 0xffc <RTC_SetDateTime>
			analog_ir_sensor_value = analog_ir_sensor_value/256;
			
			if(analog_ir_sensor_value < 2)
			{
				//object detected
				start = 1;
     e0e:	c3 2c       	mov	r12, r3
     e10:	d4 2c       	mov	r13, r4
				RTC_SetDateTime(&rtc);
				//ADCSRA = 0b10000111;
			}
			LCD_Clear();
     e12:	0e 94 bf 03 	call	0x77e	; 0x77e <LCD_Clear>
			LCD_GoToLine(0);
     e16:	80 e0       	ldi	r24, 0x00	; 0
     e18:	0e 94 af 03 	call	0x75e	; 0x75e <LCD_GoToLine>
			LCD_Printf("Start");
     e1c:	bf 92       	push	r11
     e1e:	af 92       	push	r10
     e20:	0e 94 3a 05 	call	0xa74	; 0xa74 <LCD_Printf>
     e24:	0f 90       	pop	r0
     e26:	0f 90       	pop	r0
     e28:	90 c0       	rjmp	.+288    	; 0xf4a <main+0x232>
		}
		else if(start == 1)
     e2a:	f1 e0       	ldi	r31, 0x01	; 1
     e2c:	cf 16       	cp	r12, r31
     e2e:	d1 04       	cpc	r13, r1
     e30:	09 f0       	breq	.+2      	; 0xe34 <main+0x11c>
     e32:	8b c0       	rjmp	.+278    	; 0xf4a <main+0x232>
		{
			if(wait == 10)
     e34:	80 91 b6 00 	lds	r24, 0x00B6	; 0x8000b6 <wait>
     e38:	90 91 b7 00 	lds	r25, 0x00B7	; 0x8000b7 <wait+0x1>
     e3c:	0a 97       	sbiw	r24, 0x0a	; 10
     e3e:	b9 f4       	brne	.+46     	; 0xe6e <main+0x156>
			{
				wait = 0;
     e40:	10 92 b7 00 	sts	0x00B7, r1	; 0x8000b7 <wait+0x1>
     e44:	10 92 b6 00 	sts	0x00B6, r1	; 0x8000b6 <wait>
				currentOff = (currentOff + 1) % 5;
     e48:	80 91 b8 00 	lds	r24, 0x00B8	; 0x8000b8 <currentOff>
     e4c:	90 91 b9 00 	lds	r25, 0x00B9	; 0x8000b9 <currentOff+0x1>
     e50:	01 96       	adiw	r24, 0x01	; 1
     e52:	b3 01       	movw	r22, r6
     e54:	0e 94 16 0a 	call	0x142c	; 0x142c <__divmodhi4>
     e58:	90 93 b9 00 	sts	0x00B9, r25	; 0x8000b9 <currentOff+0x1>
     e5c:	80 93 b8 00 	sts	0x00B8, r24	; 0x8000b8 <currentOff>
				PORTB = output[currentOff];
     e60:	88 0f       	add	r24, r24
     e62:	99 1f       	adc	r25, r25
     e64:	fc 01       	movw	r30, r24
     e66:	e2 59       	subi	r30, 0x92	; 146
     e68:	ff 4f       	sbci	r31, 0xFF	; 255
     e6a:	80 81       	ld	r24, Z
     e6c:	88 bb       	out	0x18, r24	; 24
			}
			
			if(life == 0)
     e6e:	80 91 78 00 	lds	r24, 0x0078	; 0x800078 <life>
     e72:	90 91 79 00 	lds	r25, 0x0079	; 0x800079 <life+0x1>
     e76:	89 2b       	or	r24, r25
     e78:	09 f4       	brne	.+2      	; 0xe7c <main+0x164>
     e7a:	71 c0       	rjmp	.+226    	; 0xf5e <main+0x246>
     e7c:	0f 2e       	mov	r0, r31
     e7e:	f4 e6       	ldi	r31, 0x64	; 100
     e80:	ef 2e       	mov	r14, r31
     e82:	f0 e0       	ldi	r31, 0x00	; 0
     e84:	ff 2e       	mov	r15, r31
     e86:	f0 2d       	mov	r31, r0
     e88:	00 e0       	ldi	r16, 0x00	; 0
     e8a:	10 e0       	ldi	r17, 0x00	; 0
				break;
			}
			
			for(int i = 0; i < 5; i++)
			{
				ADMUX = admux[i];
     e8c:	f7 01       	movw	r30, r14
     e8e:	80 81       	ld	r24, Z
     e90:	f2 e0       	ldi	r31, 0x02	; 2
     e92:	ef 0e       	add	r14, r31
     e94:	f1 1c       	adc	r15, r1
     e96:	87 b9       	out	0x07, r24	; 7
				ADCSRA = 0b10000111;
     e98:	56 b8       	out	0x06, r5	; 6
				ADCSRA |= (1 << ADSC);
     e9a:	36 9a       	sbi	0x06, 6	; 6
				while (ADCSRA & (1 << ADSC));
     e9c:	36 99       	sbic	0x06, 6	; 6
     e9e:	fe cf       	rjmp	.-4      	; 0xe9c <main+0x184>
				adc_output = (ADC >> 6);
     ea0:	64 b1       	in	r22, 0x04	; 4
     ea2:	75 b1       	in	r23, 0x05	; 5
     ea4:	00 24       	eor	r0, r0
     ea6:	66 0f       	add	r22, r22
     ea8:	77 1f       	adc	r23, r23
     eaa:	00 1c       	adc	r0, r0
     eac:	66 0f       	add	r22, r22
     eae:	77 1f       	adc	r23, r23
     eb0:	00 1c       	adc	r0, r0
     eb2:	67 2f       	mov	r22, r23
     eb4:	70 2d       	mov	r23, r0
     eb6:	70 93 a5 00 	sts	0x00A5, r23	; 0x8000a5 <adc_output+0x1>
     eba:	60 93 a4 00 	sts	0x00A4, r22	; 0x8000a4 <adc_output>
				actual_voltage = 1.0 * adc_output / 256;
     ebe:	80 e0       	ldi	r24, 0x00	; 0
     ec0:	90 e0       	ldi	r25, 0x00	; 0
     ec2:	0e 94 f2 08 	call	0x11e4	; 0x11e4 <__floatunsisf>
     ec6:	20 e0       	ldi	r18, 0x00	; 0
     ec8:	30 e0       	ldi	r19, 0x00	; 0
     eca:	40 e8       	ldi	r20, 0x80	; 128
     ecc:	5b e3       	ldi	r21, 0x3B	; 59
     ece:	0e 94 85 09 	call	0x130a	; 0x130a <__mulsf3>
     ed2:	60 93 a0 00 	sts	0x00A0, r22	; 0x8000a0 <__data_end>
     ed6:	70 93 a1 00 	sts	0x00A1, r23	; 0x8000a1 <__data_end+0x1>
     eda:	80 93 a2 00 	sts	0x00A2, r24	; 0x8000a2 <__data_end+0x2>
     ede:	90 93 a3 00 	sts	0x00A3, r25	; 0x8000a3 <__data_end+0x3>
				
				if((actual_voltage > 2) && (i != currentOff))
     ee2:	20 e0       	ldi	r18, 0x00	; 0
     ee4:	30 e0       	ldi	r19, 0x00	; 0
     ee6:	40 e0       	ldi	r20, 0x00	; 0
     ee8:	50 e4       	ldi	r21, 0x40	; 64
     eea:	0e 94 80 09 	call	0x1300	; 0x1300 <__gesf2>
     eee:	18 16       	cp	r1, r24
     ef0:	94 f4       	brge	.+36     	; 0xf16 <main+0x1fe>
     ef2:	80 91 b8 00 	lds	r24, 0x00B8	; 0x8000b8 <currentOff>
     ef6:	90 91 b9 00 	lds	r25, 0x00B9	; 0x8000b9 <currentOff+0x1>
     efa:	80 17       	cp	r24, r16
     efc:	91 07       	cpc	r25, r17
     efe:	59 f0       	breq	.+22     	; 0xf16 <main+0x1fe>
				{
					//object crossed laser
					life--;
     f00:	80 91 78 00 	lds	r24, 0x0078	; 0x800078 <life>
     f04:	90 91 79 00 	lds	r25, 0x0079	; 0x800079 <life+0x1>
     f08:	01 97       	sbiw	r24, 0x01	; 1
     f0a:	90 93 79 00 	sts	0x0079, r25	; 0x800079 <life+0x1>
     f0e:	80 93 78 00 	sts	0x0078, r24	; 0x800078 <life>
					arr[7] = life + '0';
     f12:	80 5d       	subi	r24, 0xD0	; 208
     f14:	88 87       	std	Y+8, r24	; 0x08
				LCD_GoToLine(1);
				LCD_Printf("time: %2x:%2x",(uint16_t)rtc.min,(uint16_t)rtc.sec);
				break;
			}
			
			for(int i = 0; i < 5; i++)
     f16:	0f 5f       	subi	r16, 0xFF	; 255
     f18:	1f 4f       	sbci	r17, 0xFF	; 255
     f1a:	05 30       	cpi	r16, 0x05	; 5
     f1c:	11 05       	cpc	r17, r1
     f1e:	09 f0       	breq	.+2      	; 0xf22 <main+0x20a>
     f20:	b5 cf       	rjmp	.-150    	; 0xe8c <main+0x174>
					//object crossed laser
					life--;
					arr[7] = life + '0';
				}
			}
			wait++;
     f22:	80 91 b6 00 	lds	r24, 0x00B6	; 0x8000b6 <wait>
     f26:	90 91 b7 00 	lds	r25, 0x00B7	; 0x8000b7 <wait+0x1>
     f2a:	01 96       	adiw	r24, 0x01	; 1
     f2c:	90 93 b7 00 	sts	0x00B7, r25	; 0x8000b7 <wait+0x1>
     f30:	80 93 b6 00 	sts	0x00B6, r24	; 0x8000b6 <wait>
			
			LCD_Clear();
     f34:	0e 94 bf 03 	call	0x77e	; 0x77e <LCD_Clear>
			LCD_GoToLine(0);
     f38:	80 e0       	ldi	r24, 0x00	; 0
     f3a:	0e 94 af 03 	call	0x75e	; 0x75e <LCD_GoToLine>
			LCD_Printf(arr);
     f3e:	9f 92       	push	r9
     f40:	8f 92       	push	r8
     f42:	0e 94 3a 05 	call	0xa74	; 0xa74 <LCD_Printf>
     f46:	0f 90       	pop	r0
     f48:	0f 90       	pop	r0
     f4a:	2f ef       	ldi	r18, 0xFF	; 255
     f4c:	80 e7       	ldi	r24, 0x70	; 112
     f4e:	92 e0       	ldi	r25, 0x02	; 2
     f50:	21 50       	subi	r18, 0x01	; 1
     f52:	80 40       	sbci	r24, 0x00	; 0
     f54:	90 40       	sbci	r25, 0x00	; 0
     f56:	e1 f7       	brne	.-8      	; 0xf50 <main+0x238>
     f58:	00 c0       	rjmp	.+0      	; 0xf5a <main+0x242>
     f5a:	00 00       	nop
     f5c:	49 cf       	rjmp	.-366    	; 0xdf0 <main+0xd8>
				PORTB = output[currentOff];
			}
			
			if(life == 0)
			{
				RTC_GetDateTime(&rtc);
     f5e:	8a eb       	ldi	r24, 0xBA	; 186
     f60:	90 e0       	ldi	r25, 0x00	; 0
     f62:	0e 94 23 08 	call	0x1046	; 0x1046 <RTC_GetDateTime>
				LCD_Clear();
     f66:	0e 94 bf 03 	call	0x77e	; 0x77e <LCD_Clear>
				LCD_GoToLine(0);
     f6a:	80 e0       	ldi	r24, 0x00	; 0
     f6c:	0e 94 af 03 	call	0x75e	; 0x75e <LCD_GoToLine>
				LCD_Printf("Game Over");
     f70:	88 e8       	ldi	r24, 0x88	; 136
     f72:	90 e0       	ldi	r25, 0x00	; 0
     f74:	9f 93       	push	r25
     f76:	8f 93       	push	r24
     f78:	0e 94 3a 05 	call	0xa74	; 0xa74 <LCD_Printf>
				LCD_GoToLine(1);
     f7c:	81 e0       	ldi	r24, 0x01	; 1
     f7e:	0e 94 af 03 	call	0x75e	; 0x75e <LCD_GoToLine>
				LCD_Printf("time: %2x:%2x",(uint16_t)rtc.min,(uint16_t)rtc.sec);
     f82:	ea eb       	ldi	r30, 0xBA	; 186
     f84:	f0 e0       	ldi	r31, 0x00	; 0
     f86:	80 81       	ld	r24, Z
     f88:	1f 92       	push	r1
     f8a:	8f 93       	push	r24
     f8c:	81 81       	ldd	r24, Z+1	; 0x01
     f8e:	1f 92       	push	r1
     f90:	8f 93       	push	r24
     f92:	82 e9       	ldi	r24, 0x92	; 146
     f94:	90 e0       	ldi	r25, 0x00	; 0
     f96:	9f 93       	push	r25
     f98:	8f 93       	push	r24
     f9a:	0e 94 3a 05 	call	0xa74	; 0xa74 <LCD_Printf>
     f9e:	0f b6       	in	r0, 0x3f	; 63
     fa0:	f8 94       	cli
     fa2:	de bf       	out	0x3e, r29	; 62
     fa4:	0f be       	out	0x3f, r0	; 63
     fa6:	cd bf       	out	0x3d, r28	; 61
		}
		_delay_ms(100);
		
	}
	return 0;
}
     fa8:	80 e0       	ldi	r24, 0x00	; 0
     faa:	90 e0       	ldi	r25, 0x00	; 0
     fac:	29 96       	adiw	r28, 0x09	; 9
     fae:	0f b6       	in	r0, 0x3f	; 63
     fb0:	f8 94       	cli
     fb2:	de bf       	out	0x3e, r29	; 62
     fb4:	0f be       	out	0x3f, r0	; 63
     fb6:	cd bf       	out	0x3d, r28	; 61
     fb8:	df 91       	pop	r29
     fba:	cf 91       	pop	r28
     fbc:	1f 91       	pop	r17
     fbe:	0f 91       	pop	r16
     fc0:	ff 90       	pop	r15
     fc2:	ef 90       	pop	r14
     fc4:	df 90       	pop	r13
     fc6:	cf 90       	pop	r12
     fc8:	bf 90       	pop	r11
     fca:	af 90       	pop	r10
     fcc:	9f 90       	pop	r9
     fce:	8f 90       	pop	r8
     fd0:	7f 90       	pop	r7
     fd2:	6f 90       	pop	r6
     fd4:	5f 90       	pop	r5
     fd6:	4f 90       	pop	r4
     fd8:	3f 90       	pop	r3
     fda:	08 95       	ret

00000fdc <RTC_Init>:

 * description :This function is used to Initialize the Ds1307 RTC.
***************************************************************************************************/
void RTC_Init(void)
{
    I2C_Init();                             // Initialize the I2c module.
     fdc:	0e 94 39 02 	call	0x472	; 0x472 <I2C_Init>
    I2C_Start();                            // Start I2C communication
     fe0:	0e 94 3f 02 	call	0x47e	; 0x47e <I2C_Start>

    I2C_Write(C_Ds1307WriteMode_U8);        // Connect to DS1307 by sending its ID on I2c Bus
     fe4:	80 ed       	ldi	r24, 0xD0	; 208
     fe6:	0e 94 4c 02 	call	0x498	; 0x498 <I2C_Write>
    I2C_Write(C_Ds1307ControlRegAddress_U8);// Select the Ds1307 ControlRegister to configure Ds1307
     fea:	87 e0       	ldi	r24, 0x07	; 7
     fec:	0e 94 4c 02 	call	0x498	; 0x498 <I2C_Write>

    I2C_Write(0x00);                        // Write 0x00 to Control register to disable SQW-Out
     ff0:	80 e0       	ldi	r24, 0x00	; 0
     ff2:	0e 94 4c 02 	call	0x498	; 0x498 <I2C_Write>

    I2C_Stop();                             // Stop I2C communication after initializing DS1307
     ff6:	0e 94 45 02 	call	0x48a	; 0x48a <I2C_Stop>
     ffa:	08 95       	ret

00000ffc <RTC_SetDateTime>:
        Note: The date and time should be of BCD format, 
             like 0x12,0x39,0x26 for 12hr,39min and 26sec.    
                  0x15,0x08,0x47 for 15th day,8th month and 47th year.                 
***************************************************************************************************/
void RTC_SetDateTime(rtc_t *rtc)
{
     ffc:	cf 93       	push	r28
     ffe:	df 93       	push	r29
    1000:	ec 01       	movw	r28, r24
    I2C_Start();                          // Start I2C communication
    1002:	0e 94 3f 02 	call	0x47e	; 0x47e <I2C_Start>

    I2C_Write(C_Ds1307WriteMode_U8);      // connect to DS1307 by sending its ID on I2c Bus
    1006:	80 ed       	ldi	r24, 0xD0	; 208
    1008:	0e 94 4c 02 	call	0x498	; 0x498 <I2C_Write>
    I2C_Write(C_Ds1307SecondRegAddress_U8); // Request sec RAM address at 00H
    100c:	80 e0       	ldi	r24, 0x00	; 0
    100e:	0e 94 4c 02 	call	0x498	; 0x498 <I2C_Write>

    I2C_Write(rtc->sec);                    // Write sec from RAM address 00H
    1012:	88 81       	ld	r24, Y
    1014:	0e 94 4c 02 	call	0x498	; 0x498 <I2C_Write>
    I2C_Write(rtc->min);                    // Write min from RAM address 01H
    1018:	89 81       	ldd	r24, Y+1	; 0x01
    101a:	0e 94 4c 02 	call	0x498	; 0x498 <I2C_Write>
    I2C_Write(rtc->hour);                    // Write hour from RAM address 02H
    101e:	8a 81       	ldd	r24, Y+2	; 0x02
    1020:	0e 94 4c 02 	call	0x498	; 0x498 <I2C_Write>
    I2C_Write(rtc->weekDay);                // Write weekDay on RAM address 03H
    1024:	8b 81       	ldd	r24, Y+3	; 0x03
    1026:	0e 94 4c 02 	call	0x498	; 0x498 <I2C_Write>
    I2C_Write(rtc->date);                    // Write date on RAM address 04H
    102a:	8c 81       	ldd	r24, Y+4	; 0x04
    102c:	0e 94 4c 02 	call	0x498	; 0x498 <I2C_Write>
    I2C_Write(rtc->month);                    // Write month on RAM address 05H
    1030:	8d 81       	ldd	r24, Y+5	; 0x05
    1032:	0e 94 4c 02 	call	0x498	; 0x498 <I2C_Write>
    I2C_Write(rtc->year);                    // Write year on RAM address 06h
    1036:	8e 81       	ldd	r24, Y+6	; 0x06
    1038:	0e 94 4c 02 	call	0x498	; 0x498 <I2C_Write>

    I2C_Stop();                              // Stop I2C communication after Setting the Date
    103c:	0e 94 45 02 	call	0x48a	; 0x48a <I2C_Stop>
}
    1040:	df 91       	pop	r29
    1042:	cf 91       	pop	r28
    1044:	08 95       	ret

00001046 <RTC_GetDateTime>:
    Note: The date and time read from Ds1307 will be of BCD format, 
          like 0x12,0x39,0x26 for 12hr,39min and 26sec.    
               0x15,0x08,0x47 for 15th day,8th month and 47th year.              
***************************************************************************************************/
void RTC_GetDateTime(rtc_t *rtc)
{
    1046:	cf 93       	push	r28
    1048:	df 93       	push	r29
    104a:	ec 01       	movw	r28, r24
    I2C_Start();                            // Start I2C communication
    104c:	0e 94 3f 02 	call	0x47e	; 0x47e <I2C_Start>

    I2C_Write(C_Ds1307WriteMode_U8);        // connect to DS1307 by sending its ID on I2c Bus
    1050:	80 ed       	ldi	r24, 0xD0	; 208
    1052:	0e 94 4c 02 	call	0x498	; 0x498 <I2C_Write>
    I2C_Write(C_Ds1307SecondRegAddress_U8); // Request Sec RAM address at 00H
    1056:	80 e0       	ldi	r24, 0x00	; 0
    1058:	0e 94 4c 02 	call	0x498	; 0x498 <I2C_Write>

    I2C_Stop();                                // Stop I2C communication after selecting Sec Register
    105c:	0e 94 45 02 	call	0x48a	; 0x48a <I2C_Stop>

    I2C_Start();                            // Start I2C communication
    1060:	0e 94 3f 02 	call	0x47e	; 0x47e <I2C_Start>
    I2C_Write(C_Ds1307ReadMode_U8);            // connect to DS1307(Read mode) by sending its ID
    1064:	81 ed       	ldi	r24, 0xD1	; 209
    1066:	0e 94 4c 02 	call	0x498	; 0x498 <I2C_Write>

    rtc->sec = I2C_Read(1);                // read second and return Positive ACK
    106a:	81 e0       	ldi	r24, 0x01	; 1
    106c:	0e 94 53 02 	call	0x4a6	; 0x4a6 <I2C_Read>
    1070:	88 83       	st	Y, r24
    rtc->min = I2C_Read(1);                 // read minute and return Positive ACK
    1072:	81 e0       	ldi	r24, 0x01	; 1
    1074:	0e 94 53 02 	call	0x4a6	; 0x4a6 <I2C_Read>
    1078:	89 83       	std	Y+1, r24	; 0x01
    rtc->hour= I2C_Read(1);               // read hour and return Negative/No ACK
    107a:	81 e0       	ldi	r24, 0x01	; 1
    107c:	0e 94 53 02 	call	0x4a6	; 0x4a6 <I2C_Read>
    1080:	8a 83       	std	Y+2, r24	; 0x02
    rtc->weekDay = I2C_Read(1);           // read weekDay and return Positive ACK
    1082:	81 e0       	ldi	r24, 0x01	; 1
    1084:	0e 94 53 02 	call	0x4a6	; 0x4a6 <I2C_Read>
    1088:	8b 83       	std	Y+3, r24	; 0x03
    rtc->date= I2C_Read(1);              // read Date and return Positive ACK
    108a:	81 e0       	ldi	r24, 0x01	; 1
    108c:	0e 94 53 02 	call	0x4a6	; 0x4a6 <I2C_Read>
    1090:	8c 83       	std	Y+4, r24	; 0x04
    rtc->month=I2C_Read(1);            // read Month and return Positive ACK
    1092:	81 e0       	ldi	r24, 0x01	; 1
    1094:	0e 94 53 02 	call	0x4a6	; 0x4a6 <I2C_Read>
    1098:	8d 83       	std	Y+5, r24	; 0x05
    rtc->year =I2C_Read(0);             // read Year and return Negative/No ACK
    109a:	80 e0       	ldi	r24, 0x00	; 0
    109c:	0e 94 53 02 	call	0x4a6	; 0x4a6 <I2C_Read>
    10a0:	8e 83       	std	Y+6, r24	; 0x06

    I2C_Stop();                              // Stop I2C communication after reading the Date
    10a2:	0e 94 45 02 	call	0x48a	; 0x48a <I2C_Stop>
}
    10a6:	df 91       	pop	r29
    10a8:	cf 91       	pop	r28
    10aa:	08 95       	ret

000010ac <__subsf3>:
    10ac:	50 58       	subi	r21, 0x80	; 128

000010ae <__addsf3>:
    10ae:	bb 27       	eor	r27, r27
    10b0:	aa 27       	eor	r26, r26
    10b2:	0e 94 6e 08 	call	0x10dc	; 0x10dc <__addsf3x>
    10b6:	0c 94 46 09 	jmp	0x128c	; 0x128c <__fp_round>
    10ba:	0e 94 38 09 	call	0x1270	; 0x1270 <__fp_pscA>
    10be:	38 f0       	brcs	.+14     	; 0x10ce <__addsf3+0x20>
    10c0:	0e 94 3f 09 	call	0x127e	; 0x127e <__fp_pscB>
    10c4:	20 f0       	brcs	.+8      	; 0x10ce <__addsf3+0x20>
    10c6:	39 f4       	brne	.+14     	; 0x10d6 <__addsf3+0x28>
    10c8:	9f 3f       	cpi	r25, 0xFF	; 255
    10ca:	19 f4       	brne	.+6      	; 0x10d2 <__addsf3+0x24>
    10cc:	26 f4       	brtc	.+8      	; 0x10d6 <__addsf3+0x28>
    10ce:	0c 94 35 09 	jmp	0x126a	; 0x126a <__fp_nan>
    10d2:	0e f4       	brtc	.+2      	; 0x10d6 <__addsf3+0x28>
    10d4:	e0 95       	com	r30
    10d6:	e7 fb       	bst	r30, 7
    10d8:	0c 94 2f 09 	jmp	0x125e	; 0x125e <__fp_inf>

000010dc <__addsf3x>:
    10dc:	e9 2f       	mov	r30, r25
    10de:	0e 94 57 09 	call	0x12ae	; 0x12ae <__fp_split3>
    10e2:	58 f3       	brcs	.-42     	; 0x10ba <__addsf3+0xc>
    10e4:	ba 17       	cp	r27, r26
    10e6:	62 07       	cpc	r22, r18
    10e8:	73 07       	cpc	r23, r19
    10ea:	84 07       	cpc	r24, r20
    10ec:	95 07       	cpc	r25, r21
    10ee:	20 f0       	brcs	.+8      	; 0x10f8 <__addsf3x+0x1c>
    10f0:	79 f4       	brne	.+30     	; 0x1110 <__addsf3x+0x34>
    10f2:	a6 f5       	brtc	.+104    	; 0x115c <__addsf3x+0x80>
    10f4:	0c 94 79 09 	jmp	0x12f2	; 0x12f2 <__fp_zero>
    10f8:	0e f4       	brtc	.+2      	; 0x10fc <__addsf3x+0x20>
    10fa:	e0 95       	com	r30
    10fc:	0b 2e       	mov	r0, r27
    10fe:	ba 2f       	mov	r27, r26
    1100:	a0 2d       	mov	r26, r0
    1102:	0b 01       	movw	r0, r22
    1104:	b9 01       	movw	r22, r18
    1106:	90 01       	movw	r18, r0
    1108:	0c 01       	movw	r0, r24
    110a:	ca 01       	movw	r24, r20
    110c:	a0 01       	movw	r20, r0
    110e:	11 24       	eor	r1, r1
    1110:	ff 27       	eor	r31, r31
    1112:	59 1b       	sub	r21, r25
    1114:	99 f0       	breq	.+38     	; 0x113c <__addsf3x+0x60>
    1116:	59 3f       	cpi	r21, 0xF9	; 249
    1118:	50 f4       	brcc	.+20     	; 0x112e <__addsf3x+0x52>
    111a:	50 3e       	cpi	r21, 0xE0	; 224
    111c:	68 f1       	brcs	.+90     	; 0x1178 <__addsf3x+0x9c>
    111e:	1a 16       	cp	r1, r26
    1120:	f0 40       	sbci	r31, 0x00	; 0
    1122:	a2 2f       	mov	r26, r18
    1124:	23 2f       	mov	r18, r19
    1126:	34 2f       	mov	r19, r20
    1128:	44 27       	eor	r20, r20
    112a:	58 5f       	subi	r21, 0xF8	; 248
    112c:	f3 cf       	rjmp	.-26     	; 0x1114 <__addsf3x+0x38>
    112e:	46 95       	lsr	r20
    1130:	37 95       	ror	r19
    1132:	27 95       	ror	r18
    1134:	a7 95       	ror	r26
    1136:	f0 40       	sbci	r31, 0x00	; 0
    1138:	53 95       	inc	r21
    113a:	c9 f7       	brne	.-14     	; 0x112e <__addsf3x+0x52>
    113c:	7e f4       	brtc	.+30     	; 0x115c <__addsf3x+0x80>
    113e:	1f 16       	cp	r1, r31
    1140:	ba 0b       	sbc	r27, r26
    1142:	62 0b       	sbc	r22, r18
    1144:	73 0b       	sbc	r23, r19
    1146:	84 0b       	sbc	r24, r20
    1148:	ba f0       	brmi	.+46     	; 0x1178 <__addsf3x+0x9c>
    114a:	91 50       	subi	r25, 0x01	; 1
    114c:	a1 f0       	breq	.+40     	; 0x1176 <__addsf3x+0x9a>
    114e:	ff 0f       	add	r31, r31
    1150:	bb 1f       	adc	r27, r27
    1152:	66 1f       	adc	r22, r22
    1154:	77 1f       	adc	r23, r23
    1156:	88 1f       	adc	r24, r24
    1158:	c2 f7       	brpl	.-16     	; 0x114a <__addsf3x+0x6e>
    115a:	0e c0       	rjmp	.+28     	; 0x1178 <__addsf3x+0x9c>
    115c:	ba 0f       	add	r27, r26
    115e:	62 1f       	adc	r22, r18
    1160:	73 1f       	adc	r23, r19
    1162:	84 1f       	adc	r24, r20
    1164:	48 f4       	brcc	.+18     	; 0x1178 <__addsf3x+0x9c>
    1166:	87 95       	ror	r24
    1168:	77 95       	ror	r23
    116a:	67 95       	ror	r22
    116c:	b7 95       	ror	r27
    116e:	f7 95       	ror	r31
    1170:	9e 3f       	cpi	r25, 0xFE	; 254
    1172:	08 f0       	brcs	.+2      	; 0x1176 <__addsf3x+0x9a>
    1174:	b0 cf       	rjmp	.-160    	; 0x10d6 <__addsf3+0x28>
    1176:	93 95       	inc	r25
    1178:	88 0f       	add	r24, r24
    117a:	08 f0       	brcs	.+2      	; 0x117e <__addsf3x+0xa2>
    117c:	99 27       	eor	r25, r25
    117e:	ee 0f       	add	r30, r30
    1180:	97 95       	ror	r25
    1182:	87 95       	ror	r24
    1184:	08 95       	ret

00001186 <__fixunssfsi>:
    1186:	0e 94 5f 09 	call	0x12be	; 0x12be <__fp_splitA>
    118a:	88 f0       	brcs	.+34     	; 0x11ae <__fixunssfsi+0x28>
    118c:	9f 57       	subi	r25, 0x7F	; 127
    118e:	98 f0       	brcs	.+38     	; 0x11b6 <__fixunssfsi+0x30>
    1190:	b9 2f       	mov	r27, r25
    1192:	99 27       	eor	r25, r25
    1194:	b7 51       	subi	r27, 0x17	; 23
    1196:	b0 f0       	brcs	.+44     	; 0x11c4 <__fixunssfsi+0x3e>
    1198:	e1 f0       	breq	.+56     	; 0x11d2 <__fixunssfsi+0x4c>
    119a:	66 0f       	add	r22, r22
    119c:	77 1f       	adc	r23, r23
    119e:	88 1f       	adc	r24, r24
    11a0:	99 1f       	adc	r25, r25
    11a2:	1a f0       	brmi	.+6      	; 0x11aa <__fixunssfsi+0x24>
    11a4:	ba 95       	dec	r27
    11a6:	c9 f7       	brne	.-14     	; 0x119a <__fixunssfsi+0x14>
    11a8:	14 c0       	rjmp	.+40     	; 0x11d2 <__fixunssfsi+0x4c>
    11aa:	b1 30       	cpi	r27, 0x01	; 1
    11ac:	91 f0       	breq	.+36     	; 0x11d2 <__fixunssfsi+0x4c>
    11ae:	0e 94 79 09 	call	0x12f2	; 0x12f2 <__fp_zero>
    11b2:	b1 e0       	ldi	r27, 0x01	; 1
    11b4:	08 95       	ret
    11b6:	0c 94 79 09 	jmp	0x12f2	; 0x12f2 <__fp_zero>
    11ba:	67 2f       	mov	r22, r23
    11bc:	78 2f       	mov	r23, r24
    11be:	88 27       	eor	r24, r24
    11c0:	b8 5f       	subi	r27, 0xF8	; 248
    11c2:	39 f0       	breq	.+14     	; 0x11d2 <__fixunssfsi+0x4c>
    11c4:	b9 3f       	cpi	r27, 0xF9	; 249
    11c6:	cc f3       	brlt	.-14     	; 0x11ba <__fixunssfsi+0x34>
    11c8:	86 95       	lsr	r24
    11ca:	77 95       	ror	r23
    11cc:	67 95       	ror	r22
    11ce:	b3 95       	inc	r27
    11d0:	d9 f7       	brne	.-10     	; 0x11c8 <__fixunssfsi+0x42>
    11d2:	3e f4       	brtc	.+14     	; 0x11e2 <__fixunssfsi+0x5c>
    11d4:	90 95       	com	r25
    11d6:	80 95       	com	r24
    11d8:	70 95       	com	r23
    11da:	61 95       	neg	r22
    11dc:	7f 4f       	sbci	r23, 0xFF	; 255
    11de:	8f 4f       	sbci	r24, 0xFF	; 255
    11e0:	9f 4f       	sbci	r25, 0xFF	; 255
    11e2:	08 95       	ret

000011e4 <__floatunsisf>:
    11e4:	e8 94       	clt
    11e6:	09 c0       	rjmp	.+18     	; 0x11fa <__floatsisf+0x12>

000011e8 <__floatsisf>:
    11e8:	97 fb       	bst	r25, 7
    11ea:	3e f4       	brtc	.+14     	; 0x11fa <__floatsisf+0x12>
    11ec:	90 95       	com	r25
    11ee:	80 95       	com	r24
    11f0:	70 95       	com	r23
    11f2:	61 95       	neg	r22
    11f4:	7f 4f       	sbci	r23, 0xFF	; 255
    11f6:	8f 4f       	sbci	r24, 0xFF	; 255
    11f8:	9f 4f       	sbci	r25, 0xFF	; 255
    11fa:	99 23       	and	r25, r25
    11fc:	a9 f0       	breq	.+42     	; 0x1228 <__floatsisf+0x40>
    11fe:	f9 2f       	mov	r31, r25
    1200:	96 e9       	ldi	r25, 0x96	; 150
    1202:	bb 27       	eor	r27, r27
    1204:	93 95       	inc	r25
    1206:	f6 95       	lsr	r31
    1208:	87 95       	ror	r24
    120a:	77 95       	ror	r23
    120c:	67 95       	ror	r22
    120e:	b7 95       	ror	r27
    1210:	f1 11       	cpse	r31, r1
    1212:	f8 cf       	rjmp	.-16     	; 0x1204 <__floatsisf+0x1c>
    1214:	fa f4       	brpl	.+62     	; 0x1254 <__floatsisf+0x6c>
    1216:	bb 0f       	add	r27, r27
    1218:	11 f4       	brne	.+4      	; 0x121e <__floatsisf+0x36>
    121a:	60 ff       	sbrs	r22, 0
    121c:	1b c0       	rjmp	.+54     	; 0x1254 <__floatsisf+0x6c>
    121e:	6f 5f       	subi	r22, 0xFF	; 255
    1220:	7f 4f       	sbci	r23, 0xFF	; 255
    1222:	8f 4f       	sbci	r24, 0xFF	; 255
    1224:	9f 4f       	sbci	r25, 0xFF	; 255
    1226:	16 c0       	rjmp	.+44     	; 0x1254 <__floatsisf+0x6c>
    1228:	88 23       	and	r24, r24
    122a:	11 f0       	breq	.+4      	; 0x1230 <__floatsisf+0x48>
    122c:	96 e9       	ldi	r25, 0x96	; 150
    122e:	11 c0       	rjmp	.+34     	; 0x1252 <__floatsisf+0x6a>
    1230:	77 23       	and	r23, r23
    1232:	21 f0       	breq	.+8      	; 0x123c <__floatsisf+0x54>
    1234:	9e e8       	ldi	r25, 0x8E	; 142
    1236:	87 2f       	mov	r24, r23
    1238:	76 2f       	mov	r23, r22
    123a:	05 c0       	rjmp	.+10     	; 0x1246 <__floatsisf+0x5e>
    123c:	66 23       	and	r22, r22
    123e:	71 f0       	breq	.+28     	; 0x125c <__floatsisf+0x74>
    1240:	96 e8       	ldi	r25, 0x86	; 134
    1242:	86 2f       	mov	r24, r22
    1244:	70 e0       	ldi	r23, 0x00	; 0
    1246:	60 e0       	ldi	r22, 0x00	; 0
    1248:	2a f0       	brmi	.+10     	; 0x1254 <__floatsisf+0x6c>
    124a:	9a 95       	dec	r25
    124c:	66 0f       	add	r22, r22
    124e:	77 1f       	adc	r23, r23
    1250:	88 1f       	adc	r24, r24
    1252:	da f7       	brpl	.-10     	; 0x124a <__floatsisf+0x62>
    1254:	88 0f       	add	r24, r24
    1256:	96 95       	lsr	r25
    1258:	87 95       	ror	r24
    125a:	97 f9       	bld	r25, 7
    125c:	08 95       	ret

0000125e <__fp_inf>:
    125e:	97 f9       	bld	r25, 7
    1260:	9f 67       	ori	r25, 0x7F	; 127
    1262:	80 e8       	ldi	r24, 0x80	; 128
    1264:	70 e0       	ldi	r23, 0x00	; 0
    1266:	60 e0       	ldi	r22, 0x00	; 0
    1268:	08 95       	ret

0000126a <__fp_nan>:
    126a:	9f ef       	ldi	r25, 0xFF	; 255
    126c:	80 ec       	ldi	r24, 0xC0	; 192
    126e:	08 95       	ret

00001270 <__fp_pscA>:
    1270:	00 24       	eor	r0, r0
    1272:	0a 94       	dec	r0
    1274:	16 16       	cp	r1, r22
    1276:	17 06       	cpc	r1, r23
    1278:	18 06       	cpc	r1, r24
    127a:	09 06       	cpc	r0, r25
    127c:	08 95       	ret

0000127e <__fp_pscB>:
    127e:	00 24       	eor	r0, r0
    1280:	0a 94       	dec	r0
    1282:	12 16       	cp	r1, r18
    1284:	13 06       	cpc	r1, r19
    1286:	14 06       	cpc	r1, r20
    1288:	05 06       	cpc	r0, r21
    128a:	08 95       	ret

0000128c <__fp_round>:
    128c:	09 2e       	mov	r0, r25
    128e:	03 94       	inc	r0
    1290:	00 0c       	add	r0, r0
    1292:	11 f4       	brne	.+4      	; 0x1298 <__fp_round+0xc>
    1294:	88 23       	and	r24, r24
    1296:	52 f0       	brmi	.+20     	; 0x12ac <__fp_round+0x20>
    1298:	bb 0f       	add	r27, r27
    129a:	40 f4       	brcc	.+16     	; 0x12ac <__fp_round+0x20>
    129c:	bf 2b       	or	r27, r31
    129e:	11 f4       	brne	.+4      	; 0x12a4 <__fp_round+0x18>
    12a0:	60 ff       	sbrs	r22, 0
    12a2:	04 c0       	rjmp	.+8      	; 0x12ac <__fp_round+0x20>
    12a4:	6f 5f       	subi	r22, 0xFF	; 255
    12a6:	7f 4f       	sbci	r23, 0xFF	; 255
    12a8:	8f 4f       	sbci	r24, 0xFF	; 255
    12aa:	9f 4f       	sbci	r25, 0xFF	; 255
    12ac:	08 95       	ret

000012ae <__fp_split3>:
    12ae:	57 fd       	sbrc	r21, 7
    12b0:	90 58       	subi	r25, 0x80	; 128
    12b2:	44 0f       	add	r20, r20
    12b4:	55 1f       	adc	r21, r21
    12b6:	59 f0       	breq	.+22     	; 0x12ce <__fp_splitA+0x10>
    12b8:	5f 3f       	cpi	r21, 0xFF	; 255
    12ba:	71 f0       	breq	.+28     	; 0x12d8 <__fp_splitA+0x1a>
    12bc:	47 95       	ror	r20

000012be <__fp_splitA>:
    12be:	88 0f       	add	r24, r24
    12c0:	97 fb       	bst	r25, 7
    12c2:	99 1f       	adc	r25, r25
    12c4:	61 f0       	breq	.+24     	; 0x12de <__fp_splitA+0x20>
    12c6:	9f 3f       	cpi	r25, 0xFF	; 255
    12c8:	79 f0       	breq	.+30     	; 0x12e8 <__fp_splitA+0x2a>
    12ca:	87 95       	ror	r24
    12cc:	08 95       	ret
    12ce:	12 16       	cp	r1, r18
    12d0:	13 06       	cpc	r1, r19
    12d2:	14 06       	cpc	r1, r20
    12d4:	55 1f       	adc	r21, r21
    12d6:	f2 cf       	rjmp	.-28     	; 0x12bc <__fp_split3+0xe>
    12d8:	46 95       	lsr	r20
    12da:	f1 df       	rcall	.-30     	; 0x12be <__fp_splitA>
    12dc:	08 c0       	rjmp	.+16     	; 0x12ee <__fp_splitA+0x30>
    12de:	16 16       	cp	r1, r22
    12e0:	17 06       	cpc	r1, r23
    12e2:	18 06       	cpc	r1, r24
    12e4:	99 1f       	adc	r25, r25
    12e6:	f1 cf       	rjmp	.-30     	; 0x12ca <__fp_splitA+0xc>
    12e8:	86 95       	lsr	r24
    12ea:	71 05       	cpc	r23, r1
    12ec:	61 05       	cpc	r22, r1
    12ee:	08 94       	sec
    12f0:	08 95       	ret

000012f2 <__fp_zero>:
    12f2:	e8 94       	clt

000012f4 <__fp_szero>:
    12f4:	bb 27       	eor	r27, r27
    12f6:	66 27       	eor	r22, r22
    12f8:	77 27       	eor	r23, r23
    12fa:	cb 01       	movw	r24, r22
    12fc:	97 f9       	bld	r25, 7
    12fe:	08 95       	ret

00001300 <__gesf2>:
    1300:	0e 94 f2 09 	call	0x13e4	; 0x13e4 <__fp_cmp>
    1304:	08 f4       	brcc	.+2      	; 0x1308 <__gesf2+0x8>
    1306:	8f ef       	ldi	r24, 0xFF	; 255
    1308:	08 95       	ret

0000130a <__mulsf3>:
    130a:	0e 94 98 09 	call	0x1330	; 0x1330 <__mulsf3x>
    130e:	0c 94 46 09 	jmp	0x128c	; 0x128c <__fp_round>
    1312:	0e 94 38 09 	call	0x1270	; 0x1270 <__fp_pscA>
    1316:	38 f0       	brcs	.+14     	; 0x1326 <__mulsf3+0x1c>
    1318:	0e 94 3f 09 	call	0x127e	; 0x127e <__fp_pscB>
    131c:	20 f0       	brcs	.+8      	; 0x1326 <__mulsf3+0x1c>
    131e:	95 23       	and	r25, r21
    1320:	11 f0       	breq	.+4      	; 0x1326 <__mulsf3+0x1c>
    1322:	0c 94 2f 09 	jmp	0x125e	; 0x125e <__fp_inf>
    1326:	0c 94 35 09 	jmp	0x126a	; 0x126a <__fp_nan>
    132a:	11 24       	eor	r1, r1
    132c:	0c 94 7a 09 	jmp	0x12f4	; 0x12f4 <__fp_szero>

00001330 <__mulsf3x>:
    1330:	0e 94 57 09 	call	0x12ae	; 0x12ae <__fp_split3>
    1334:	70 f3       	brcs	.-36     	; 0x1312 <__mulsf3+0x8>

00001336 <__mulsf3_pse>:
    1336:	95 9f       	mul	r25, r21
    1338:	c1 f3       	breq	.-16     	; 0x132a <__mulsf3+0x20>
    133a:	95 0f       	add	r25, r21
    133c:	50 e0       	ldi	r21, 0x00	; 0
    133e:	55 1f       	adc	r21, r21
    1340:	62 9f       	mul	r22, r18
    1342:	f0 01       	movw	r30, r0
    1344:	72 9f       	mul	r23, r18
    1346:	bb 27       	eor	r27, r27
    1348:	f0 0d       	add	r31, r0
    134a:	b1 1d       	adc	r27, r1
    134c:	63 9f       	mul	r22, r19
    134e:	aa 27       	eor	r26, r26
    1350:	f0 0d       	add	r31, r0
    1352:	b1 1d       	adc	r27, r1
    1354:	aa 1f       	adc	r26, r26
    1356:	64 9f       	mul	r22, r20
    1358:	66 27       	eor	r22, r22
    135a:	b0 0d       	add	r27, r0
    135c:	a1 1d       	adc	r26, r1
    135e:	66 1f       	adc	r22, r22
    1360:	82 9f       	mul	r24, r18
    1362:	22 27       	eor	r18, r18
    1364:	b0 0d       	add	r27, r0
    1366:	a1 1d       	adc	r26, r1
    1368:	62 1f       	adc	r22, r18
    136a:	73 9f       	mul	r23, r19
    136c:	b0 0d       	add	r27, r0
    136e:	a1 1d       	adc	r26, r1
    1370:	62 1f       	adc	r22, r18
    1372:	83 9f       	mul	r24, r19
    1374:	a0 0d       	add	r26, r0
    1376:	61 1d       	adc	r22, r1
    1378:	22 1f       	adc	r18, r18
    137a:	74 9f       	mul	r23, r20
    137c:	33 27       	eor	r19, r19
    137e:	a0 0d       	add	r26, r0
    1380:	61 1d       	adc	r22, r1
    1382:	23 1f       	adc	r18, r19
    1384:	84 9f       	mul	r24, r20
    1386:	60 0d       	add	r22, r0
    1388:	21 1d       	adc	r18, r1
    138a:	82 2f       	mov	r24, r18
    138c:	76 2f       	mov	r23, r22
    138e:	6a 2f       	mov	r22, r26
    1390:	11 24       	eor	r1, r1
    1392:	9f 57       	subi	r25, 0x7F	; 127
    1394:	50 40       	sbci	r21, 0x00	; 0
    1396:	9a f0       	brmi	.+38     	; 0x13be <__mulsf3_pse+0x88>
    1398:	f1 f0       	breq	.+60     	; 0x13d6 <__mulsf3_pse+0xa0>
    139a:	88 23       	and	r24, r24
    139c:	4a f0       	brmi	.+18     	; 0x13b0 <__mulsf3_pse+0x7a>
    139e:	ee 0f       	add	r30, r30
    13a0:	ff 1f       	adc	r31, r31
    13a2:	bb 1f       	adc	r27, r27
    13a4:	66 1f       	adc	r22, r22
    13a6:	77 1f       	adc	r23, r23
    13a8:	88 1f       	adc	r24, r24
    13aa:	91 50       	subi	r25, 0x01	; 1
    13ac:	50 40       	sbci	r21, 0x00	; 0
    13ae:	a9 f7       	brne	.-22     	; 0x139a <__mulsf3_pse+0x64>
    13b0:	9e 3f       	cpi	r25, 0xFE	; 254
    13b2:	51 05       	cpc	r21, r1
    13b4:	80 f0       	brcs	.+32     	; 0x13d6 <__mulsf3_pse+0xa0>
    13b6:	0c 94 2f 09 	jmp	0x125e	; 0x125e <__fp_inf>
    13ba:	0c 94 7a 09 	jmp	0x12f4	; 0x12f4 <__fp_szero>
    13be:	5f 3f       	cpi	r21, 0xFF	; 255
    13c0:	e4 f3       	brlt	.-8      	; 0x13ba <__mulsf3_pse+0x84>
    13c2:	98 3e       	cpi	r25, 0xE8	; 232
    13c4:	d4 f3       	brlt	.-12     	; 0x13ba <__mulsf3_pse+0x84>
    13c6:	86 95       	lsr	r24
    13c8:	77 95       	ror	r23
    13ca:	67 95       	ror	r22
    13cc:	b7 95       	ror	r27
    13ce:	f7 95       	ror	r31
    13d0:	e7 95       	ror	r30
    13d2:	9f 5f       	subi	r25, 0xFF	; 255
    13d4:	c1 f7       	brne	.-16     	; 0x13c6 <__mulsf3_pse+0x90>
    13d6:	fe 2b       	or	r31, r30
    13d8:	88 0f       	add	r24, r24
    13da:	91 1d       	adc	r25, r1
    13dc:	96 95       	lsr	r25
    13de:	87 95       	ror	r24
    13e0:	97 f9       	bld	r25, 7
    13e2:	08 95       	ret

000013e4 <__fp_cmp>:
    13e4:	99 0f       	add	r25, r25
    13e6:	00 08       	sbc	r0, r0
    13e8:	55 0f       	add	r21, r21
    13ea:	aa 0b       	sbc	r26, r26
    13ec:	e0 e8       	ldi	r30, 0x80	; 128
    13ee:	fe ef       	ldi	r31, 0xFE	; 254
    13f0:	16 16       	cp	r1, r22
    13f2:	17 06       	cpc	r1, r23
    13f4:	e8 07       	cpc	r30, r24
    13f6:	f9 07       	cpc	r31, r25
    13f8:	c0 f0       	brcs	.+48     	; 0x142a <__fp_cmp+0x46>
    13fa:	12 16       	cp	r1, r18
    13fc:	13 06       	cpc	r1, r19
    13fe:	e4 07       	cpc	r30, r20
    1400:	f5 07       	cpc	r31, r21
    1402:	98 f0       	brcs	.+38     	; 0x142a <__fp_cmp+0x46>
    1404:	62 1b       	sub	r22, r18
    1406:	73 0b       	sbc	r23, r19
    1408:	84 0b       	sbc	r24, r20
    140a:	95 0b       	sbc	r25, r21
    140c:	39 f4       	brne	.+14     	; 0x141c <__fp_cmp+0x38>
    140e:	0a 26       	eor	r0, r26
    1410:	61 f0       	breq	.+24     	; 0x142a <__fp_cmp+0x46>
    1412:	23 2b       	or	r18, r19
    1414:	24 2b       	or	r18, r20
    1416:	25 2b       	or	r18, r21
    1418:	21 f4       	brne	.+8      	; 0x1422 <__fp_cmp+0x3e>
    141a:	08 95       	ret
    141c:	0a 26       	eor	r0, r26
    141e:	09 f4       	brne	.+2      	; 0x1422 <__fp_cmp+0x3e>
    1420:	a1 40       	sbci	r26, 0x01	; 1
    1422:	a6 95       	lsr	r26
    1424:	8f ef       	ldi	r24, 0xFF	; 255
    1426:	81 1d       	adc	r24, r1
    1428:	81 1d       	adc	r24, r1
    142a:	08 95       	ret

0000142c <__divmodhi4>:
    142c:	97 fb       	bst	r25, 7
    142e:	07 2e       	mov	r0, r23
    1430:	16 f4       	brtc	.+4      	; 0x1436 <__divmodhi4+0xa>
    1432:	00 94       	com	r0
    1434:	07 d0       	rcall	.+14     	; 0x1444 <__divmodhi4_neg1>
    1436:	77 fd       	sbrc	r23, 7
    1438:	09 d0       	rcall	.+18     	; 0x144c <__divmodhi4_neg2>
    143a:	0e 94 52 0a 	call	0x14a4	; 0x14a4 <__udivmodhi4>
    143e:	07 fc       	sbrc	r0, 7
    1440:	05 d0       	rcall	.+10     	; 0x144c <__divmodhi4_neg2>
    1442:	3e f4       	brtc	.+14     	; 0x1452 <__divmodhi4_exit>

00001444 <__divmodhi4_neg1>:
    1444:	90 95       	com	r25
    1446:	81 95       	neg	r24
    1448:	9f 4f       	sbci	r25, 0xFF	; 255
    144a:	08 95       	ret

0000144c <__divmodhi4_neg2>:
    144c:	70 95       	com	r23
    144e:	61 95       	neg	r22
    1450:	7f 4f       	sbci	r23, 0xFF	; 255

00001452 <__divmodhi4_exit>:
    1452:	08 95       	ret

00001454 <__udivmodsi4>:
    1454:	a1 e2       	ldi	r26, 0x21	; 33
    1456:	1a 2e       	mov	r1, r26
    1458:	aa 1b       	sub	r26, r26
    145a:	bb 1b       	sub	r27, r27
    145c:	fd 01       	movw	r30, r26
    145e:	0d c0       	rjmp	.+26     	; 0x147a <__udivmodsi4_ep>

00001460 <__udivmodsi4_loop>:
    1460:	aa 1f       	adc	r26, r26
    1462:	bb 1f       	adc	r27, r27
    1464:	ee 1f       	adc	r30, r30
    1466:	ff 1f       	adc	r31, r31
    1468:	a2 17       	cp	r26, r18
    146a:	b3 07       	cpc	r27, r19
    146c:	e4 07       	cpc	r30, r20
    146e:	f5 07       	cpc	r31, r21
    1470:	20 f0       	brcs	.+8      	; 0x147a <__udivmodsi4_ep>
    1472:	a2 1b       	sub	r26, r18
    1474:	b3 0b       	sbc	r27, r19
    1476:	e4 0b       	sbc	r30, r20
    1478:	f5 0b       	sbc	r31, r21

0000147a <__udivmodsi4_ep>:
    147a:	66 1f       	adc	r22, r22
    147c:	77 1f       	adc	r23, r23
    147e:	88 1f       	adc	r24, r24
    1480:	99 1f       	adc	r25, r25
    1482:	1a 94       	dec	r1
    1484:	69 f7       	brne	.-38     	; 0x1460 <__udivmodsi4_loop>
    1486:	60 95       	com	r22
    1488:	70 95       	com	r23
    148a:	80 95       	com	r24
    148c:	90 95       	com	r25
    148e:	9b 01       	movw	r18, r22
    1490:	ac 01       	movw	r20, r24
    1492:	bd 01       	movw	r22, r26
    1494:	cf 01       	movw	r24, r30
    1496:	08 95       	ret

00001498 <__tablejump2__>:
    1498:	ee 0f       	add	r30, r30
    149a:	ff 1f       	adc	r31, r31
    149c:	05 90       	lpm	r0, Z+
    149e:	f4 91       	lpm	r31, Z
    14a0:	e0 2d       	mov	r30, r0
    14a2:	09 94       	ijmp

000014a4 <__udivmodhi4>:
    14a4:	aa 1b       	sub	r26, r26
    14a6:	bb 1b       	sub	r27, r27
    14a8:	51 e1       	ldi	r21, 0x11	; 17
    14aa:	07 c0       	rjmp	.+14     	; 0x14ba <__udivmodhi4_ep>

000014ac <__udivmodhi4_loop>:
    14ac:	aa 1f       	adc	r26, r26
    14ae:	bb 1f       	adc	r27, r27
    14b0:	a6 17       	cp	r26, r22
    14b2:	b7 07       	cpc	r27, r23
    14b4:	10 f0       	brcs	.+4      	; 0x14ba <__udivmodhi4_ep>
    14b6:	a6 1b       	sub	r26, r22
    14b8:	b7 0b       	sbc	r27, r23

000014ba <__udivmodhi4_ep>:
    14ba:	88 1f       	adc	r24, r24
    14bc:	99 1f       	adc	r25, r25
    14be:	5a 95       	dec	r21
    14c0:	a9 f7       	brne	.-22     	; 0x14ac <__udivmodhi4_loop>
    14c2:	80 95       	com	r24
    14c4:	90 95       	com	r25
    14c6:	bc 01       	movw	r22, r24
    14c8:	cd 01       	movw	r24, r26
    14ca:	08 95       	ret

000014cc <_exit>:
    14cc:	f8 94       	cli

000014ce <__stop_program>:
    14ce:	ff cf       	rjmp	.-2      	; 0x14ce <__stop_program>
